                              1 ;--------------------------------------------------------
                              2 ; File Created by SDCC : free open source ANSI-C Compiler
                              3 ; Version 3.6.8 #9946 (CYGWIN)
                              4 ;--------------------------------------------------------
                              5 	.module main
                              6 	.optsdcc -mz80
                              7 	
                              8 ;--------------------------------------------------------
                              9 ; Public variables in this module
                             10 ;--------------------------------------------------------
                             11 	.globl _main
                             12 	.globl _juego
                             13 	.globl _pausaTecladoLibre
                             14 	.globl _cpct_restoreState_mxor_u8
                             15 	.globl _cpct_setSeed_mxor
                             16 	.globl _cpct_getScreenPtr
                             17 	.globl _cpct_setPALColour
                             18 	.globl _cpct_setPalette
                             19 	.globl _cpct_setVideoMode
                             20 	.globl _cpct_drawStringM1
                             21 	.globl _cpct_setDrawCharM1
                             22 	.globl _cpct_isAnyKeyPressed_f
                             23 	.globl _cpct_scanKeyboard_f
                             24 	.globl _cpct_memset
                             25 	.globl _cpct_disableFirmware
                             26 	.globl _sig_nivel
                             27 	.globl _cursorConsola
                             28 	.globl _nivel
                             29 	.globl _entidad
                             30 	.globl _paletaM1
                             31 ;--------------------------------------------------------
                             32 ; special function registers
                             33 ;--------------------------------------------------------
                             34 ;--------------------------------------------------------
                             35 ; ram data
                             36 ;--------------------------------------------------------
                             37 	.area _DATA
   0000                      38 _entidad::
   0000                      39 	.ds 60
   003C                      40 _nivel::
   003C                      41 	.ds 1
   003D                      42 _cursorConsola::
   003D                      43 	.ds 1
   003E                      44 _sig_nivel::
   003E                      45 	.ds 1
                             46 ;--------------------------------------------------------
                             47 ; ram data
                             48 ;--------------------------------------------------------
                             49 	.area _INITIALIZED
                             50 ;--------------------------------------------------------
                             51 ; absolute external ram data
                             52 ;--------------------------------------------------------
                             53 	.area _DABS (ABS)
                             54 ;--------------------------------------------------------
                             55 ; global & static initialisations
                             56 ;--------------------------------------------------------
                             57 	.area _HOME
                             58 	.area _GSINIT
                             59 	.area _GSFINAL
                             60 	.area _GSINIT
                             61 ;--------------------------------------------------------
                             62 ; Home
                             63 ;--------------------------------------------------------
                             64 	.area _HOME
                             65 	.area _HOME
                             66 ;--------------------------------------------------------
                             67 ; code
                             68 ;--------------------------------------------------------
                             69 	.area _CODE
                             70 ;src/main.c:39: void main(void) {
                             71 ;	---------------------------------
                             72 ; Function main
                             73 ; ---------------------------------
   0000                      74 _main::
                             75 ;src/main.c:43: cpct_disableFirmware();
   0000 CDr00r00      [17]   76 	call	_cpct_disableFirmware
                             77 ;src/main.c:45: while (1) {
   0003                      78 00107$:
                             79 ;src/main.c:46: cpct_setVideoMode(1);
   0003 2E 01         [ 7]   80 	ld	l, #0x01
   0005 CDr00r00      [17]   81 	call	_cpct_setVideoMode
                             82 ;src/main.c:47: cpct_clearScreen(0x00);
   0008 21 00 40      [10]   83 	ld	hl, #0x4000
   000B E5            [11]   84 	push	hl
   000C AF            [ 4]   85 	xor	a, a
   000D F5            [11]   86 	push	af
   000E 33            [ 6]   87 	inc	sp
   000F 26 C0         [ 7]   88 	ld	h, #0xc0
   0011 E5            [11]   89 	push	hl
   0012 CDr00r00      [17]   90 	call	_cpct_memset
                             91 ;src/main.c:48: cpct_setPalette(paletaM1,4);
   0015 21 04 00      [10]   92 	ld	hl, #0x0004
   0018 E5            [11]   93 	push	hl
   0019 21r06r01      [10]   94 	ld	hl, #_paletaM1
   001C E5            [11]   95 	push	hl
   001D CDr00r00      [17]   96 	call	_cpct_setPalette
                             97 ;src/main.c:49: cpct_setBorder(HW_BLACK);
   0020 21 10 14      [10]   98 	ld	hl, #0x1410
   0023 E5            [11]   99 	push	hl
   0024 CDr00r00      [17]  100 	call	_cpct_setPALColour
                            101 ;src/main.c:52: cpct_setDrawCharM1(2, 0);
   0027 21 02 00      [10]  102 	ld	hl, #0x0002
   002A E5            [11]  103 	push	hl
   002B CDr00r00      [17]  104 	call	_cpct_setDrawCharM1
                            105 ;src/main.c:53: cpct_drawStringM1("         Don Mendo and Lady Sol", cpctm_screenPtr(CPCT_VMEM_START, 0, 0));
   002E 21 00 C0      [10]  106 	ld	hl, #0xc000
   0031 E5            [11]  107 	push	hl
   0032 21r0Ar01      [10]  108 	ld	hl, #___str_0
   0035 E5            [11]  109 	push	hl
   0036 CDr00r00      [17]  110 	call	_cpct_drawStringM1
                            111 ;src/main.c:54: cpct_drawStringM1("                   in", cpctm_screenPtr(CPCT_VMEM_START, 0, 8));
   0039 21 50 C0      [10]  112 	ld	hl, #0xc050
   003C E5            [11]  113 	push	hl
   003D 21r2Ar01      [10]  114 	ld	hl, #___str_1
   0040 E5            [11]  115 	push	hl
   0041 CDr00r00      [17]  116 	call	_cpct_drawStringM1
                            117 ;src/main.c:55: cpct_drawStringM1("           Castle Concepcion", cpctm_screenPtr(CPCT_VMEM_START, 0, 16));
   0044 21 A0 C0      [10]  118 	ld	hl, #0xc0a0
   0047 E5            [11]  119 	push	hl
   0048 21r40r01      [10]  120 	ld	hl, #___str_2
   004B E5            [11]  121 	push	hl
   004C CDr00r00      [17]  122 	call	_cpct_drawStringM1
                            123 ;src/main.c:56: cpct_drawStringM1("Mendo was in love with Lady Sol, a rich ", cpctm_screenPtr(CPCT_VMEM_START, 0, 40));
   004F 21 90 C1      [10]  124 	ld	hl, #0xc190
   0052 E5            [11]  125 	push	hl
   0053 21r5Dr01      [10]  126 	ld	hl, #___str_3
   0056 E5            [11]  127 	push	hl
   0057 CDr00r00      [17]  128 	call	_cpct_drawStringM1
                            129 ;src/main.c:57: cpct_drawStringM1("and beautiful woman. He was so poor that", cpctm_screenPtr(CPCT_VMEM_START, 0, 48));
   005A 21 E0 C1      [10]  130 	ld	hl, #0xc1e0
   005D E5            [11]  131 	push	hl
   005E 21r86r01      [10]  132 	ld	hl, #___str_4
   0061 E5            [11]  133 	push	hl
   0062 CDr00r00      [17]  134 	call	_cpct_drawStringM1
                            135 ;src/main.c:58: cpct_drawStringM1("he couldn't marry her. He decided to go ", cpctm_screenPtr(CPCT_VMEM_START, 0, 56));
   0065 21 30 C2      [10]  136 	ld	hl, #0xc230
   0068 E5            [11]  137 	push	hl
   0069 21rAFr01      [10]  138 	ld	hl, #___str_5
   006C E5            [11]  139 	push	hl
   006D CDr00r00      [17]  140 	call	_cpct_drawStringM1
                            141 ;src/main.c:59: cpct_drawStringM1("to the Crusades to get Fortune and Fame.", cpctm_screenPtr(CPCT_VMEM_START, 0, 64));
   0070 21 80 C2      [10]  142 	ld	hl, #0xc280
   0073 E5            [11]  143 	push	hl
   0074 21rD8r01      [10]  144 	ld	hl, #___str_6
   0077 E5            [11]  145 	push	hl
   0078 CDr00r00      [17]  146 	call	_cpct_drawStringM1
                            147 ;src/main.c:61: cpct_drawStringM1("When he became a brave hero, he heard", cpctm_screenPtr(CPCT_VMEM_START, 0, 80));
   007B 21 20 C3      [10]  148 	ld	hl, #0xc320
   007E E5            [11]  149 	push	hl
   007F 21r01r02      [10]  150 	ld	hl, #___str_7
   0082 E5            [11]  151 	push	hl
   0083 CDr00r00      [17]  152 	call	_cpct_drawStringM1
                            153 ;src/main.c:62: cpct_drawStringM1("Lady Sol was forced to marry don Ricardo", cpctm_screenPtr(CPCT_VMEM_START, 0, 88));
   0086 21 70 C3      [10]  154 	ld	hl, #0xc370
   0089 E5            [11]  155 	push	hl
   008A 21r27r02      [10]  156 	ld	hl, #___str_8
   008D E5            [11]  157 	push	hl
   008E CDr00r00      [17]  158 	call	_cpct_drawStringM1
                            159 ;src/main.c:63: cpct_drawStringM1("a very important noble. ", cpctm_screenPtr(CPCT_VMEM_START, 0, 96));
   0091 21 C0 C3      [10]  160 	ld	hl, #0xc3c0
   0094 E5            [11]  161 	push	hl
   0095 21r50r02      [10]  162 	ld	hl, #___str_9
   0098 E5            [11]  163 	push	hl
   0099 CDr00r00      [17]  164 	call	_cpct_drawStringM1
                            165 ;src/main.c:65: cpct_drawStringM1("Bring to an end the bloody Crusades war,", cpctm_screenPtr(CPCT_VMEM_START, 0, 112));
   009C 21 60 C4      [10]  166 	ld	hl, #0xc460
   009F E5            [11]  167 	push	hl
   00A0 21r69r02      [10]  168 	ld	hl, #___str_10
   00A3 E5            [11]  169 	push	hl
   00A4 CDr00r00      [17]  170 	call	_cpct_drawStringM1
                            171 ;src/main.c:66: cpct_drawStringM1("go through the underway passage and ", cpctm_screenPtr(CPCT_VMEM_START, 0, 120));
   00A7 21 B0 C4      [10]  172 	ld	hl, #0xc4b0
   00AA E5            [11]  173 	push	hl
   00AB 21r92r02      [10]  174 	ld	hl, #___str_11
   00AE E5            [11]  175 	push	hl
   00AF CDr00r00      [17]  176 	call	_cpct_drawStringM1
                            177 ;src/main.c:67: cpct_drawStringM1("finally assault the Castle to help Don ", cpctm_screenPtr(CPCT_VMEM_START, 0, 128));
   00B2 21 00 C5      [10]  178 	ld	hl, #0xc500
   00B5 E5            [11]  179 	push	hl
   00B6 21rB7r02      [10]  180 	ld	hl, #___str_12
   00B9 E5            [11]  181 	push	hl
   00BA CDr00r00      [17]  182 	call	_cpct_drawStringM1
                            183 ;src/main.c:68: cpct_drawStringM1("Mendo to go back to his love: Lady Sun.", cpctm_screenPtr(CPCT_VMEM_START, 0, 136));
   00BD 21 50 C5      [10]  184 	ld	hl, #0xc550
   00C0 E5            [11]  185 	push	hl
   00C1 21rDFr02      [10]  186 	ld	hl, #___str_13
   00C4 E5            [11]  187 	push	hl
   00C5 CDr00r00      [17]  188 	call	_cpct_drawStringM1
                            189 ;src/main.c:69: cpct_drawStringM1("PRESS ANY KEY TO START", cpct_getScreenPtr(CPCT_VMEM_START, 0, 168));
   00C8 21 00 A8      [10]  190 	ld	hl, #0xa800
   00CB E5            [11]  191 	push	hl
   00CC 26 C0         [ 7]  192 	ld	h, #0xc0
   00CE E5            [11]  193 	push	hl
   00CF CDr00r00      [17]  194 	call	_cpct_getScreenPtr
   00D2 01r07r03      [10]  195 	ld	bc, #___str_14+0
   00D5 E5            [11]  196 	push	hl
   00D6 C5            [11]  197 	push	bc
   00D7 CDr00r00      [17]  198 	call	_cpct_drawStringM1
                            199 ;src/main.c:72: pausaTecladoLibre();
   00DA CDr00r00      [17]  200 	call	_pausaTecladoLibre
                            201 ;src/main.c:76: do {
   00DD 0E 00         [ 7]  202 	ld	c, #0x00
   00DF                     203 00101$:
                            204 ;src/main.c:77: cpct_scanKeyboard_f();
   00DF C5            [11]  205 	push	bc
   00E0 CDr00r00      [17]  206 	call	_cpct_scanKeyboard_f
   00E3 C1            [10]  207 	pop	bc
                            208 ;src/main.c:78: semilla++;
   00E4 0C            [ 4]  209 	inc	c
                            210 ;src/main.c:80: while (!cpct_isAnyKeyPressed_f());
   00E5 C5            [11]  211 	push	bc
   00E6 CDr00r00      [17]  212 	call	_cpct_isAnyKeyPressed_f
   00E9 C1            [10]  213 	pop	bc
   00EA 7D            [ 4]  214 	ld	a, l
   00EB B7            [ 4]  215 	or	a, a
   00EC 28 F1         [12]  216 	jr	Z,00101$
                            217 ;src/main.c:83: if (!semilla)
   00EE 79            [ 4]  218 	ld	a,c
   00EF 6F            [ 4]  219 	ld	l,a
   00F0 B7            [ 4]  220 	or	a, a
   00F1 20 02         [12]  221 	jr	NZ,00105$
                            222 ;src/main.c:84: semilla = 1;
   00F3 2E 01         [ 7]  223 	ld	l, #0x01
   00F5                     224 00105$:
                            225 ;src/main.c:86: cpct_srand8(semilla);
   00F5 26 00         [ 7]  226 	ld	h, #0x00
   00F7 11 00 00      [10]  227 	ld	de,#0x0000
   00FA CDr00r00      [17]  228 	call	_cpct_setSeed_mxor
   00FD CDr00r00      [17]  229 	call	_cpct_restoreState_mxor_u8
                            230 ;src/main.c:87: juego();
   0100 CDr00r00      [17]  231 	call	_juego
   0103 C3r03r00      [10]  232 	jp	00107$
   0106                     233 _paletaM1:
   0106 54                  234 	.db #0x54	; 84	'T'
   0107 40                  235 	.db #0x40	; 64
   0108 4B                  236 	.db #0x4b	; 75	'K'
   0109 44                  237 	.db #0x44	; 68	'D'
   010A                     238 ___str_0:
   010A 20 20 20 20 20 20   239 	.ascii "         Don Mendo and Lady Sol"
        20 20 20 44 6F 6E
        20 4D 65 6E 64 6F
        20 61 6E 64 20 4C
        61 64 79 20 53 6F
        6C
   0129 00                  240 	.db 0x00
   012A                     241 ___str_1:
   012A 20 20 20 20 20 20   242 	.ascii "                   in"
        20 20 20 20 20 20
        20 20 20 20 20 20
        20 69 6E
   013F 00                  243 	.db 0x00
   0140                     244 ___str_2:
   0140 20 20 20 20 20 20   245 	.ascii "           Castle Concepcion"
        20 20 20 20 20 43
        61 73 74 6C 65 20
        43 6F 6E 63 65 70
        63 69 6F 6E
   015C 00                  246 	.db 0x00
   015D                     247 ___str_3:
   015D 4D 65 6E 64 6F 20   248 	.ascii "Mendo was in love with Lady Sol, a rich "
        77 61 73 20 69 6E
        20 6C 6F 76 65 20
        77 69 74 68 20 4C
        61 64 79 20 53 6F
        6C 2C 20 61 20 72
        69 63 68 20
   0185 00                  249 	.db 0x00
   0186                     250 ___str_4:
   0186 61 6E 64 20 62 65   251 	.ascii "and beautiful woman. He was so poor that"
        61 75 74 69 66 75
        6C 20 77 6F 6D 61
        6E 2E 20 48 65 20
        77 61 73 20 73 6F
        20 70 6F 6F 72 20
        74 68 61 74
   01AE 00                  252 	.db 0x00
   01AF                     253 ___str_5:
   01AF 68 65 20 63 6F 75   254 	.ascii "he couldn't marry her. He decided to go "
        6C 64 6E 27 74 20
        6D 61 72 72 79 20
        68 65 72 2E 20 48
        65 20 64 65 63 69
        64 65 64 20 74 6F
        20 67 6F 20
   01D7 00                  255 	.db 0x00
   01D8                     256 ___str_6:
   01D8 74 6F 20 74 68 65   257 	.ascii "to the Crusades to get Fortune and Fame."
        20 43 72 75 73 61
        64 65 73 20 74 6F
        20 67 65 74 20 46
        6F 72 74 75 6E 65
        20 61 6E 64 20 46
        61 6D 65 2E
   0200 00                  258 	.db 0x00
   0201                     259 ___str_7:
   0201 57 68 65 6E 20 68   260 	.ascii "When he became a brave hero, he heard"
        65 20 62 65 63 61
        6D 65 20 61 20 62
        72 61 76 65 20 68
        65 72 6F 2C 20 68
        65 20 68 65 61 72
        64
   0226 00                  261 	.db 0x00
   0227                     262 ___str_8:
   0227 4C 61 64 79 20 53   263 	.ascii "Lady Sol was forced to marry don Ricardo"
        6F 6C 20 77 61 73
        20 66 6F 72 63 65
        64 20 74 6F 20 6D
        61 72 72 79 20 64
        6F 6E 20 52 69 63
        61 72 64 6F
   024F 00                  264 	.db 0x00
   0250                     265 ___str_9:
   0250 61 20 76 65 72 79   266 	.ascii "a very important noble. "
        20 69 6D 70 6F 72
        74 61 6E 74 20 6E
        6F 62 6C 65 2E 20
   0268 00                  267 	.db 0x00
   0269                     268 ___str_10:
   0269 42 72 69 6E 67 20   269 	.ascii "Bring to an end the bloody Crusades war,"
        74 6F 20 61 6E 20
        65 6E 64 20 74 68
        65 20 62 6C 6F 6F
        64 79 20 43 72 75
        73 61 64 65 73 20
        77 61 72 2C
   0291 00                  270 	.db 0x00
   0292                     271 ___str_11:
   0292 67 6F 20 74 68 72   272 	.ascii "go through the underway passage and "
        6F 75 67 68 20 74
        68 65 20 75 6E 64
        65 72 77 61 79 20
        70 61 73 73 61 67
        65 20 61 6E 64 20
   02B6 00                  273 	.db 0x00
   02B7                     274 ___str_12:
   02B7 66 69 6E 61 6C 6C   275 	.ascii "finally assault the Castle to help Don "
        79 20 61 73 73 61
        75 6C 74 20 74 68
        65 20 43 61 73 74
        6C 65 20 74 6F 20
        68 65 6C 70 20 44
        6F 6E 20
   02DE 00                  276 	.db 0x00
   02DF                     277 ___str_13:
   02DF 4D 65 6E 64 6F 20   278 	.ascii "Mendo to go back to his love: Lady Sun."
        74 6F 20 67 6F 20
        62 61 63 6B 20 74
        6F 20 68 69 73 20
        6C 6F 76 65 3A 20
        4C 61 64 79 20 53
        75 6E 2E
   0306 00                  279 	.db 0x00
   0307                     280 ___str_14:
   0307 50 52 45 53 53 20   281 	.ascii "PRESS ANY KEY TO START"
        41 4E 59 20 4B 45
        59 20 54 4F 20 53
        54 41 52 54
   031D 00                  282 	.db 0x00
                            283 	.area _CODE
                            284 	.area _INITIALIZER
                            285 	.area _CABS (ABS)
