                              1 ;--------------------------------------------------------
                              2 ; File Created by SDCC : free open source ANSI-C Compiler
                              3 ; Version 3.6.8 #9946 (CYGWIN)
                              4 ;--------------------------------------------------------
                              5 	.module niveles
                              6 	.optsdcc -mz80
                              7 	
                              8 ;--------------------------------------------------------
                              9 ; Public variables in this module
                             10 ;--------------------------------------------------------
                             11 	.globl _initNivel
                             12 	.globl _initPlayer
                             13 	.globl _initMago
                             14 	.globl _initCarcelero
                             15 	.globl _initCaballero
                             16 	.globl _initSoldado2
                             17 	.globl _initSoldado1
                             18 	.globl _initGoblin
                             19 	.globl _initSpider
                             20 	.globl _initGusano
                             21 	.globl _initEsqueleto
                             22 	.globl _initMurcielago
                             23 	.globl _initAbeja
                             24 	.globl _initFakir
                             25 	.globl _initSoldadoArabe3
                             26 	.globl _initSoldadoArabe2
                             27 	.globl _initSoldadoArabe1
                             28 ;--------------------------------------------------------
                             29 ; special function registers
                             30 ;--------------------------------------------------------
                             31 ;--------------------------------------------------------
                             32 ; ram data
                             33 ;--------------------------------------------------------
                             34 	.area _DATA
                             35 ;--------------------------------------------------------
                             36 ; ram data
                             37 ;--------------------------------------------------------
                             38 	.area _INITIALIZED
                             39 ;--------------------------------------------------------
                             40 ; absolute external ram data
                             41 ;--------------------------------------------------------
                             42 	.area _DABS (ABS)
                             43 ;--------------------------------------------------------
                             44 ; global & static initialisations
                             45 ;--------------------------------------------------------
                             46 	.area _HOME
                             47 	.area _GSINIT
                             48 	.area _GSFINAL
                             49 	.area _GSINIT
                             50 ;--------------------------------------------------------
                             51 ; Home
                             52 ;--------------------------------------------------------
                             53 	.area _HOME
                             54 	.area _HOME
                             55 ;--------------------------------------------------------
                             56 ; code
                             57 ;--------------------------------------------------------
                             58 	.area _CODE
                             59 ;src/niveles.c:7: void initSoldadoArabe1(TStats *entidad) {
                             60 ;	---------------------------------
                             61 ; Function initSoldadoArabe1
                             62 ; ---------------------------------
   0000                      63 _initSoldadoArabe1::
   0000 DD E5         [15]   64 	push	ix
   0002 DD 21 00 00   [14]   65 	ld	ix,#0
   0006 DD 39         [15]   66 	add	ix,sp
                             67 ;src/niveles.c:8: strcpy(entidad->name,"Soldier 1");
   0008 DD 4E 04      [19]   68 	ld	c,4 (ix)
   000B DD 46 05      [19]   69 	ld	b,5 (ix)
   000E 59            [ 4]   70 	ld	e, c
   000F 50            [ 4]   71 	ld	d, b
   0010 13            [ 6]   72 	inc	de
   0011 C5            [11]   73 	push	bc
   0012 21r41r00      [10]   74 	ld	hl, #___str_0
   0015 AF            [ 4]   75 	xor	a, a
   0016                      76 00103$:
   0016 BE            [ 7]   77 	cp	a, (hl)
   0017 ED A0         [16]   78 	ldi
   0019 20 FB         [12]   79 	jr	NZ, 00103$
   001B C1            [10]   80 	pop	bc
                             81 ;src/niveles.c:9: entidad->max_energy = 60;
   001C 21 0C 00      [10]   82 	ld	hl, #0x000c
   001F 09            [11]   83 	add	hl, bc
   0020 36 3C         [10]   84 	ld	(hl), #0x3c
                             85 ;src/niveles.c:10: entidad->attack = 10;
   0022 21 0D 00      [10]   86 	ld	hl, #0x000d
   0025 09            [11]   87 	add	hl, bc
   0026 36 0A         [10]   88 	ld	(hl), #0x0a
                             89 ;src/niveles.c:11: entidad->force = 5;
   0028 21 0E 00      [10]   90 	ld	hl, #0x000e
   002B 09            [11]   91 	add	hl, bc
   002C 36 05         [10]   92 	ld	(hl), #0x05
                             93 ;src/niveles.c:12: entidad->defense = 10;
   002E 21 0F 00      [10]   94 	ld	hl, #0x000f
   0031 09            [11]   95 	add	hl, bc
   0032 36 0A         [10]   96 	ld	(hl), #0x0a
                             97 ;src/niveles.c:13: entidad->sprite = (u8*) &G_arabe_1[0];
   0034 21 13 00      [10]   98 	ld	hl, #0x0013
   0037 09            [11]   99 	add	hl, bc
   0038 01r00r00      [10]  100 	ld	bc, #_G_arabe_1+0
   003B 71            [ 7]  101 	ld	(hl), c
   003C 23            [ 6]  102 	inc	hl
   003D 70            [ 7]  103 	ld	(hl), b
   003E DD E1         [14]  104 	pop	ix
   0040 C9            [10]  105 	ret
   0041                     106 ___str_0:
   0041 53 6F 6C 64 69 65   107 	.ascii "Soldier 1"
        72 20 31
   004A 00                  108 	.db 0x00
                            109 ;src/niveles.c:16: void initSoldadoArabe2(TStats *entidad) {
                            110 ;	---------------------------------
                            111 ; Function initSoldadoArabe2
                            112 ; ---------------------------------
   004B                     113 _initSoldadoArabe2::
   004B DD E5         [15]  114 	push	ix
   004D DD 21 00 00   [14]  115 	ld	ix,#0
   0051 DD 39         [15]  116 	add	ix,sp
                            117 ;src/niveles.c:17: strcpy(entidad->name,"Soldier 2");
   0053 DD 4E 04      [19]  118 	ld	c,4 (ix)
   0056 DD 46 05      [19]  119 	ld	b,5 (ix)
   0059 59            [ 4]  120 	ld	e, c
   005A 50            [ 4]  121 	ld	d, b
   005B 13            [ 6]  122 	inc	de
   005C C5            [11]  123 	push	bc
   005D 21r8Cr00      [10]  124 	ld	hl, #___str_1
   0060 AF            [ 4]  125 	xor	a, a
   0061                     126 00103$:
   0061 BE            [ 7]  127 	cp	a, (hl)
   0062 ED A0         [16]  128 	ldi
   0064 20 FB         [12]  129 	jr	NZ, 00103$
   0066 C1            [10]  130 	pop	bc
                            131 ;src/niveles.c:18: entidad->max_energy = 60;
   0067 21 0C 00      [10]  132 	ld	hl, #0x000c
   006A 09            [11]  133 	add	hl, bc
   006B 36 3C         [10]  134 	ld	(hl), #0x3c
                            135 ;src/niveles.c:19: entidad->attack = 15;
   006D 21 0D 00      [10]  136 	ld	hl, #0x000d
   0070 09            [11]  137 	add	hl, bc
   0071 36 0F         [10]  138 	ld	(hl), #0x0f
                            139 ;src/niveles.c:20: entidad->force = 10;
   0073 21 0E 00      [10]  140 	ld	hl, #0x000e
   0076 09            [11]  141 	add	hl, bc
   0077 36 0A         [10]  142 	ld	(hl), #0x0a
                            143 ;src/niveles.c:21: entidad->defense = 5;
   0079 21 0F 00      [10]  144 	ld	hl, #0x000f
   007C 09            [11]  145 	add	hl, bc
   007D 36 05         [10]  146 	ld	(hl), #0x05
                            147 ;src/niveles.c:22: entidad->sprite = (u8*) &G_arabe_2[0];
   007F 21 13 00      [10]  148 	ld	hl, #0x0013
   0082 09            [11]  149 	add	hl, bc
   0083 01r00r00      [10]  150 	ld	bc, #_G_arabe_2+0
   0086 71            [ 7]  151 	ld	(hl), c
   0087 23            [ 6]  152 	inc	hl
   0088 70            [ 7]  153 	ld	(hl), b
   0089 DD E1         [14]  154 	pop	ix
   008B C9            [10]  155 	ret
   008C                     156 ___str_1:
   008C 53 6F 6C 64 69 65   157 	.ascii "Soldier 2"
        72 20 32
   0095 00                  158 	.db 0x00
                            159 ;src/niveles.c:25: void initSoldadoArabe3(TStats *entidad) {
                            160 ;	---------------------------------
                            161 ; Function initSoldadoArabe3
                            162 ; ---------------------------------
   0096                     163 _initSoldadoArabe3::
   0096 DD E5         [15]  164 	push	ix
   0098 DD 21 00 00   [14]  165 	ld	ix,#0
   009C DD 39         [15]  166 	add	ix,sp
                            167 ;src/niveles.c:26: strcpy(entidad->name,"Soldier 3");
   009E DD 4E 04      [19]  168 	ld	c,4 (ix)
   00A1 DD 46 05      [19]  169 	ld	b,5 (ix)
   00A4 59            [ 4]  170 	ld	e, c
   00A5 50            [ 4]  171 	ld	d, b
   00A6 13            [ 6]  172 	inc	de
   00A7 C5            [11]  173 	push	bc
   00A8 21rD7r00      [10]  174 	ld	hl, #___str_2
   00AB AF            [ 4]  175 	xor	a, a
   00AC                     176 00103$:
   00AC BE            [ 7]  177 	cp	a, (hl)
   00AD ED A0         [16]  178 	ldi
   00AF 20 FB         [12]  179 	jr	NZ, 00103$
   00B1 C1            [10]  180 	pop	bc
                            181 ;src/niveles.c:27: entidad->max_energy = 40;
   00B2 21 0C 00      [10]  182 	ld	hl, #0x000c
   00B5 09            [11]  183 	add	hl, bc
   00B6 36 28         [10]  184 	ld	(hl), #0x28
                            185 ;src/niveles.c:28: entidad->attack = 3;
   00B8 21 0D 00      [10]  186 	ld	hl, #0x000d
   00BB 09            [11]  187 	add	hl, bc
   00BC 36 03         [10]  188 	ld	(hl), #0x03
                            189 ;src/niveles.c:29: entidad->force = 2;
   00BE 21 0E 00      [10]  190 	ld	hl, #0x000e
   00C1 09            [11]  191 	add	hl, bc
   00C2 36 02         [10]  192 	ld	(hl), #0x02
                            193 ;src/niveles.c:30: entidad->defense = 0;
   00C4 21 0F 00      [10]  194 	ld	hl, #0x000f
   00C7 09            [11]  195 	add	hl, bc
   00C8 36 00         [10]  196 	ld	(hl), #0x00
                            197 ;src/niveles.c:31: entidad->sprite = (u8*) &G_arabe_3[0];
   00CA 21 13 00      [10]  198 	ld	hl, #0x0013
   00CD 09            [11]  199 	add	hl, bc
   00CE 01r00r00      [10]  200 	ld	bc, #_G_arabe_3+0
   00D1 71            [ 7]  201 	ld	(hl), c
   00D2 23            [ 6]  202 	inc	hl
   00D3 70            [ 7]  203 	ld	(hl), b
   00D4 DD E1         [14]  204 	pop	ix
   00D6 C9            [10]  205 	ret
   00D7                     206 ___str_2:
   00D7 53 6F 6C 64 69 65   207 	.ascii "Soldier 3"
        72 20 33
   00E0 00                  208 	.db 0x00
                            209 ;src/niveles.c:34: void initFakir(TStats *entidad) {
                            210 ;	---------------------------------
                            211 ; Function initFakir
                            212 ; ---------------------------------
   00E1                     213 _initFakir::
   00E1 DD E5         [15]  214 	push	ix
   00E3 DD 21 00 00   [14]  215 	ld	ix,#0
   00E7 DD 39         [15]  216 	add	ix,sp
                            217 ;src/niveles.c:35: strcpy(entidad->name,"Fakir");
   00E9 DD 4E 04      [19]  218 	ld	c,4 (ix)
   00EC DD 46 05      [19]  219 	ld	b,5 (ix)
   00EF 59            [ 4]  220 	ld	e, c
   00F0 50            [ 4]  221 	ld	d, b
   00F1 13            [ 6]  222 	inc	de
   00F2 C5            [11]  223 	push	bc
   00F3 21r22r01      [10]  224 	ld	hl, #___str_3
   00F6 AF            [ 4]  225 	xor	a, a
   00F7                     226 00103$:
   00F7 BE            [ 7]  227 	cp	a, (hl)
   00F8 ED A0         [16]  228 	ldi
   00FA 20 FB         [12]  229 	jr	NZ, 00103$
   00FC C1            [10]  230 	pop	bc
                            231 ;src/niveles.c:36: entidad->max_energy = 30;
   00FD 21 0C 00      [10]  232 	ld	hl, #0x000c
   0100 09            [11]  233 	add	hl, bc
   0101 36 1E         [10]  234 	ld	(hl), #0x1e
                            235 ;src/niveles.c:37: entidad->attack = 30;
   0103 21 0D 00      [10]  236 	ld	hl, #0x000d
   0106 09            [11]  237 	add	hl, bc
   0107 36 1E         [10]  238 	ld	(hl), #0x1e
                            239 ;src/niveles.c:38: entidad->force = 5;
   0109 21 0E 00      [10]  240 	ld	hl, #0x000e
   010C 09            [11]  241 	add	hl, bc
   010D 36 05         [10]  242 	ld	(hl), #0x05
                            243 ;src/niveles.c:39: entidad->defense = 0;
   010F 21 0F 00      [10]  244 	ld	hl, #0x000f
   0112 09            [11]  245 	add	hl, bc
   0113 36 00         [10]  246 	ld	(hl), #0x00
                            247 ;src/niveles.c:40: entidad->sprite = (u8*) &G_fakir[0];
   0115 21 13 00      [10]  248 	ld	hl, #0x0013
   0118 09            [11]  249 	add	hl, bc
   0119 01r00r00      [10]  250 	ld	bc, #_G_fakir+0
   011C 71            [ 7]  251 	ld	(hl), c
   011D 23            [ 6]  252 	inc	hl
   011E 70            [ 7]  253 	ld	(hl), b
   011F DD E1         [14]  254 	pop	ix
   0121 C9            [10]  255 	ret
   0122                     256 ___str_3:
   0122 46 61 6B 69 72      257 	.ascii "Fakir"
   0127 00                  258 	.db 0x00
                            259 ;src/niveles.c:43: void initAbeja(TStats *entidad) {
                            260 ;	---------------------------------
                            261 ; Function initAbeja
                            262 ; ---------------------------------
   0128                     263 _initAbeja::
   0128 DD E5         [15]  264 	push	ix
   012A DD 21 00 00   [14]  265 	ld	ix,#0
   012E DD 39         [15]  266 	add	ix,sp
                            267 ;src/niveles.c:44: strcpy(entidad->name,"Bee");
   0130 DD 4E 04      [19]  268 	ld	c,4 (ix)
   0133 DD 46 05      [19]  269 	ld	b,5 (ix)
   0136 59            [ 4]  270 	ld	e, c
   0137 50            [ 4]  271 	ld	d, b
   0138 13            [ 6]  272 	inc	de
   0139 C5            [11]  273 	push	bc
   013A 21r69r01      [10]  274 	ld	hl, #___str_4
   013D AF            [ 4]  275 	xor	a, a
   013E                     276 00103$:
   013E BE            [ 7]  277 	cp	a, (hl)
   013F ED A0         [16]  278 	ldi
   0141 20 FB         [12]  279 	jr	NZ, 00103$
   0143 C1            [10]  280 	pop	bc
                            281 ;src/niveles.c:45: entidad->max_energy = 50;
   0144 21 0C 00      [10]  282 	ld	hl, #0x000c
   0147 09            [11]  283 	add	hl, bc
   0148 36 32         [10]  284 	ld	(hl), #0x32
                            285 ;src/niveles.c:46: entidad->attack = 10;
   014A 21 0D 00      [10]  286 	ld	hl, #0x000d
   014D 09            [11]  287 	add	hl, bc
   014E 36 0A         [10]  288 	ld	(hl), #0x0a
                            289 ;src/niveles.c:47: entidad->force = 5;
   0150 21 0E 00      [10]  290 	ld	hl, #0x000e
   0153 09            [11]  291 	add	hl, bc
   0154 36 05         [10]  292 	ld	(hl), #0x05
                            293 ;src/niveles.c:48: entidad->defense = 20;
   0156 21 0F 00      [10]  294 	ld	hl, #0x000f
   0159 09            [11]  295 	add	hl, bc
   015A 36 14         [10]  296 	ld	(hl), #0x14
                            297 ;src/niveles.c:49: entidad->sprite = (u8*) &G_abeja[0];
   015C 21 13 00      [10]  298 	ld	hl, #0x0013
   015F 09            [11]  299 	add	hl, bc
   0160 01r00r00      [10]  300 	ld	bc, #_G_abeja+0
   0163 71            [ 7]  301 	ld	(hl), c
   0164 23            [ 6]  302 	inc	hl
   0165 70            [ 7]  303 	ld	(hl), b
   0166 DD E1         [14]  304 	pop	ix
   0168 C9            [10]  305 	ret
   0169                     306 ___str_4:
   0169 42 65 65            307 	.ascii "Bee"
   016C 00                  308 	.db 0x00
                            309 ;src/niveles.c:52: void initMurcielago(TStats *entidad) {
                            310 ;	---------------------------------
                            311 ; Function initMurcielago
                            312 ; ---------------------------------
   016D                     313 _initMurcielago::
   016D DD E5         [15]  314 	push	ix
   016F DD 21 00 00   [14]  315 	ld	ix,#0
   0173 DD 39         [15]  316 	add	ix,sp
                            317 ;src/niveles.c:53: strcpy(entidad->name,"Evil Bat");
   0175 DD 4E 04      [19]  318 	ld	c,4 (ix)
   0178 DD 46 05      [19]  319 	ld	b,5 (ix)
   017B 59            [ 4]  320 	ld	e, c
   017C 50            [ 4]  321 	ld	d, b
   017D 13            [ 6]  322 	inc	de
   017E C5            [11]  323 	push	bc
   017F 21rAEr01      [10]  324 	ld	hl, #___str_5
   0182 AF            [ 4]  325 	xor	a, a
   0183                     326 00103$:
   0183 BE            [ 7]  327 	cp	a, (hl)
   0184 ED A0         [16]  328 	ldi
   0186 20 FB         [12]  329 	jr	NZ, 00103$
   0188 C1            [10]  330 	pop	bc
                            331 ;src/niveles.c:54: entidad->max_energy = 60;
   0189 21 0C 00      [10]  332 	ld	hl, #0x000c
   018C 09            [11]  333 	add	hl, bc
   018D 36 3C         [10]  334 	ld	(hl), #0x3c
                            335 ;src/niveles.c:55: entidad->attack = 15;
   018F 21 0D 00      [10]  336 	ld	hl, #0x000d
   0192 09            [11]  337 	add	hl, bc
   0193 36 0F         [10]  338 	ld	(hl), #0x0f
                            339 ;src/niveles.c:56: entidad->force = 5;
   0195 21 0E 00      [10]  340 	ld	hl, #0x000e
   0198 09            [11]  341 	add	hl, bc
   0199 36 05         [10]  342 	ld	(hl), #0x05
                            343 ;src/niveles.c:57: entidad->defense = 20;
   019B 21 0F 00      [10]  344 	ld	hl, #0x000f
   019E 09            [11]  345 	add	hl, bc
   019F 36 14         [10]  346 	ld	(hl), #0x14
                            347 ;src/niveles.c:58: entidad->sprite = (u8*) &G_murcielago[0];
   01A1 21 13 00      [10]  348 	ld	hl, #0x0013
   01A4 09            [11]  349 	add	hl, bc
   01A5 01r00r00      [10]  350 	ld	bc, #_G_murcielago+0
   01A8 71            [ 7]  351 	ld	(hl), c
   01A9 23            [ 6]  352 	inc	hl
   01AA 70            [ 7]  353 	ld	(hl), b
   01AB DD E1         [14]  354 	pop	ix
   01AD C9            [10]  355 	ret
   01AE                     356 ___str_5:
   01AE 45 76 69 6C 20 42   357 	.ascii "Evil Bat"
        61 74
   01B6 00                  358 	.db 0x00
                            359 ;src/niveles.c:61: void initEsqueleto(TStats *entidad) {
                            360 ;	---------------------------------
                            361 ; Function initEsqueleto
                            362 ; ---------------------------------
   01B7                     363 _initEsqueleto::
   01B7 DD E5         [15]  364 	push	ix
   01B9 DD 21 00 00   [14]  365 	ld	ix,#0
   01BD DD 39         [15]  366 	add	ix,sp
                            367 ;src/niveles.c:62: strcpy(entidad->name,"Skeleton");
   01BF DD 4E 04      [19]  368 	ld	c,4 (ix)
   01C2 DD 46 05      [19]  369 	ld	b,5 (ix)
   01C5 59            [ 4]  370 	ld	e, c
   01C6 50            [ 4]  371 	ld	d, b
   01C7 13            [ 6]  372 	inc	de
   01C8 C5            [11]  373 	push	bc
   01C9 21rF8r01      [10]  374 	ld	hl, #___str_6
   01CC AF            [ 4]  375 	xor	a, a
   01CD                     376 00103$:
   01CD BE            [ 7]  377 	cp	a, (hl)
   01CE ED A0         [16]  378 	ldi
   01D0 20 FB         [12]  379 	jr	NZ, 00103$
   01D2 C1            [10]  380 	pop	bc
                            381 ;src/niveles.c:63: entidad->max_energy = 70;
   01D3 21 0C 00      [10]  382 	ld	hl, #0x000c
   01D6 09            [11]  383 	add	hl, bc
   01D7 36 46         [10]  384 	ld	(hl), #0x46
                            385 ;src/niveles.c:64: entidad->attack = 10;
   01D9 21 0D 00      [10]  386 	ld	hl, #0x000d
   01DC 09            [11]  387 	add	hl, bc
   01DD 36 0A         [10]  388 	ld	(hl), #0x0a
                            389 ;src/niveles.c:65: entidad->force = 7;
   01DF 21 0E 00      [10]  390 	ld	hl, #0x000e
   01E2 09            [11]  391 	add	hl, bc
   01E3 36 07         [10]  392 	ld	(hl), #0x07
                            393 ;src/niveles.c:66: entidad->defense = 5;
   01E5 21 0F 00      [10]  394 	ld	hl, #0x000f
   01E8 09            [11]  395 	add	hl, bc
   01E9 36 05         [10]  396 	ld	(hl), #0x05
                            397 ;src/niveles.c:67: entidad->sprite = (u8*) &G_esqueleto[0];
   01EB 21 13 00      [10]  398 	ld	hl, #0x0013
   01EE 09            [11]  399 	add	hl, bc
   01EF 01r00r00      [10]  400 	ld	bc, #_G_esqueleto+0
   01F2 71            [ 7]  401 	ld	(hl), c
   01F3 23            [ 6]  402 	inc	hl
   01F4 70            [ 7]  403 	ld	(hl), b
   01F5 DD E1         [14]  404 	pop	ix
   01F7 C9            [10]  405 	ret
   01F8                     406 ___str_6:
   01F8 53 6B 65 6C 65 74   407 	.ascii "Skeleton"
        6F 6E
   0200 00                  408 	.db 0x00
                            409 ;src/niveles.c:70: void initGusano(TStats *entidad) {
                            410 ;	---------------------------------
                            411 ; Function initGusano
                            412 ; ---------------------------------
   0201                     413 _initGusano::
   0201 DD E5         [15]  414 	push	ix
   0203 DD 21 00 00   [14]  415 	ld	ix,#0
   0207 DD 39         [15]  416 	add	ix,sp
                            417 ;src/niveles.c:71: strcpy(entidad->name,"Worm");
   0209 DD 4E 04      [19]  418 	ld	c,4 (ix)
   020C DD 46 05      [19]  419 	ld	b,5 (ix)
   020F 59            [ 4]  420 	ld	e, c
   0210 50            [ 4]  421 	ld	d, b
   0211 13            [ 6]  422 	inc	de
   0212 C5            [11]  423 	push	bc
   0213 21r42r02      [10]  424 	ld	hl, #___str_7
   0216 AF            [ 4]  425 	xor	a, a
   0217                     426 00103$:
   0217 BE            [ 7]  427 	cp	a, (hl)
   0218 ED A0         [16]  428 	ldi
   021A 20 FB         [12]  429 	jr	NZ, 00103$
   021C C1            [10]  430 	pop	bc
                            431 ;src/niveles.c:72: entidad->max_energy = 40;
   021D 21 0C 00      [10]  432 	ld	hl, #0x000c
   0220 09            [11]  433 	add	hl, bc
   0221 36 28         [10]  434 	ld	(hl), #0x28
                            435 ;src/niveles.c:73: entidad->attack = 30;
   0223 21 0D 00      [10]  436 	ld	hl, #0x000d
   0226 09            [11]  437 	add	hl, bc
   0227 36 1E         [10]  438 	ld	(hl), #0x1e
                            439 ;src/niveles.c:74: entidad->force = 5;
   0229 21 0E 00      [10]  440 	ld	hl, #0x000e
   022C 09            [11]  441 	add	hl, bc
   022D 36 05         [10]  442 	ld	(hl), #0x05
                            443 ;src/niveles.c:75: entidad->defense = 0;
   022F 21 0F 00      [10]  444 	ld	hl, #0x000f
   0232 09            [11]  445 	add	hl, bc
   0233 36 00         [10]  446 	ld	(hl), #0x00
                            447 ;src/niveles.c:76: entidad->sprite = (u8*) &G_gusano[0];
   0235 21 13 00      [10]  448 	ld	hl, #0x0013
   0238 09            [11]  449 	add	hl, bc
   0239 01r00r00      [10]  450 	ld	bc, #_G_gusano+0
   023C 71            [ 7]  451 	ld	(hl), c
   023D 23            [ 6]  452 	inc	hl
   023E 70            [ 7]  453 	ld	(hl), b
   023F DD E1         [14]  454 	pop	ix
   0241 C9            [10]  455 	ret
   0242                     456 ___str_7:
   0242 57 6F 72 6D         457 	.ascii "Worm"
   0246 00                  458 	.db 0x00
                            459 ;src/niveles.c:79: void initSpider(TStats *entidad) {
                            460 ;	---------------------------------
                            461 ; Function initSpider
                            462 ; ---------------------------------
   0247                     463 _initSpider::
   0247 DD E5         [15]  464 	push	ix
   0249 DD 21 00 00   [14]  465 	ld	ix,#0
   024D DD 39         [15]  466 	add	ix,sp
                            467 ;src/niveles.c:80: strcpy(entidad->name,"Spider");
   024F DD 4E 04      [19]  468 	ld	c,4 (ix)
   0252 DD 46 05      [19]  469 	ld	b,5 (ix)
   0255 59            [ 4]  470 	ld	e, c
   0256 50            [ 4]  471 	ld	d, b
   0257 13            [ 6]  472 	inc	de
   0258 C5            [11]  473 	push	bc
   0259 21r88r02      [10]  474 	ld	hl, #___str_8
   025C AF            [ 4]  475 	xor	a, a
   025D                     476 00103$:
   025D BE            [ 7]  477 	cp	a, (hl)
   025E ED A0         [16]  478 	ldi
   0260 20 FB         [12]  479 	jr	NZ, 00103$
   0262 C1            [10]  480 	pop	bc
                            481 ;src/niveles.c:81: entidad->max_energy = 70;
   0263 21 0C 00      [10]  482 	ld	hl, #0x000c
   0266 09            [11]  483 	add	hl, bc
   0267 36 46         [10]  484 	ld	(hl), #0x46
                            485 ;src/niveles.c:82: entidad->attack = 15;
   0269 21 0D 00      [10]  486 	ld	hl, #0x000d
   026C 09            [11]  487 	add	hl, bc
   026D 36 0F         [10]  488 	ld	(hl), #0x0f
                            489 ;src/niveles.c:83: entidad->force = 10;
   026F 21 0E 00      [10]  490 	ld	hl, #0x000e
   0272 09            [11]  491 	add	hl, bc
   0273 36 0A         [10]  492 	ld	(hl), #0x0a
                            493 ;src/niveles.c:84: entidad->defense = 10;
   0275 21 0F 00      [10]  494 	ld	hl, #0x000f
   0278 09            [11]  495 	add	hl, bc
   0279 36 0A         [10]  496 	ld	(hl), #0x0a
                            497 ;src/niveles.c:85: entidad->sprite = (u8*) &G_spider[0];
   027B 21 13 00      [10]  498 	ld	hl, #0x0013
   027E 09            [11]  499 	add	hl, bc
   027F 01r00r00      [10]  500 	ld	bc, #_G_spider+0
   0282 71            [ 7]  501 	ld	(hl), c
   0283 23            [ 6]  502 	inc	hl
   0284 70            [ 7]  503 	ld	(hl), b
   0285 DD E1         [14]  504 	pop	ix
   0287 C9            [10]  505 	ret
   0288                     506 ___str_8:
   0288 53 70 69 64 65 72   507 	.ascii "Spider"
   028E 00                  508 	.db 0x00
                            509 ;src/niveles.c:88: void initGoblin(TStats *entidad) {
                            510 ;	---------------------------------
                            511 ; Function initGoblin
                            512 ; ---------------------------------
   028F                     513 _initGoblin::
   028F DD E5         [15]  514 	push	ix
   0291 DD 21 00 00   [14]  515 	ld	ix,#0
   0295 DD 39         [15]  516 	add	ix,sp
                            517 ;src/niveles.c:89: strcpy(entidad->name,"Goblin");
   0297 DD 4E 04      [19]  518 	ld	c,4 (ix)
   029A DD 46 05      [19]  519 	ld	b,5 (ix)
   029D 59            [ 4]  520 	ld	e, c
   029E 50            [ 4]  521 	ld	d, b
   029F 13            [ 6]  522 	inc	de
   02A0 C5            [11]  523 	push	bc
   02A1 21rD0r02      [10]  524 	ld	hl, #___str_9
   02A4 AF            [ 4]  525 	xor	a, a
   02A5                     526 00103$:
   02A5 BE            [ 7]  527 	cp	a, (hl)
   02A6 ED A0         [16]  528 	ldi
   02A8 20 FB         [12]  529 	jr	NZ, 00103$
   02AA C1            [10]  530 	pop	bc
                            531 ;src/niveles.c:90: entidad->max_energy = 45;
   02AB 21 0C 00      [10]  532 	ld	hl, #0x000c
   02AE 09            [11]  533 	add	hl, bc
   02AF 36 2D         [10]  534 	ld	(hl), #0x2d
                            535 ;src/niveles.c:91: entidad->attack = 20;
   02B1 21 0D 00      [10]  536 	ld	hl, #0x000d
   02B4 09            [11]  537 	add	hl, bc
   02B5 36 14         [10]  538 	ld	(hl), #0x14
                            539 ;src/niveles.c:92: entidad->force = 10;
   02B7 21 0E 00      [10]  540 	ld	hl, #0x000e
   02BA 09            [11]  541 	add	hl, bc
   02BB 36 0A         [10]  542 	ld	(hl), #0x0a
                            543 ;src/niveles.c:93: entidad->defense = 5;
   02BD 21 0F 00      [10]  544 	ld	hl, #0x000f
   02C0 09            [11]  545 	add	hl, bc
   02C1 36 05         [10]  546 	ld	(hl), #0x05
                            547 ;src/niveles.c:94: entidad->sprite = (u8*) &G_goblin[0];
   02C3 21 13 00      [10]  548 	ld	hl, #0x0013
   02C6 09            [11]  549 	add	hl, bc
   02C7 01r00r00      [10]  550 	ld	bc, #_G_goblin+0
   02CA 71            [ 7]  551 	ld	(hl), c
   02CB 23            [ 6]  552 	inc	hl
   02CC 70            [ 7]  553 	ld	(hl), b
   02CD DD E1         [14]  554 	pop	ix
   02CF C9            [10]  555 	ret
   02D0                     556 ___str_9:
   02D0 47 6F 62 6C 69 6E   557 	.ascii "Goblin"
   02D6 00                  558 	.db 0x00
                            559 ;src/niveles.c:97: void initSoldado1(TStats *entidad) {
                            560 ;	---------------------------------
                            561 ; Function initSoldado1
                            562 ; ---------------------------------
   02D7                     563 _initSoldado1::
   02D7 DD E5         [15]  564 	push	ix
   02D9 DD 21 00 00   [14]  565 	ld	ix,#0
   02DD DD 39         [15]  566 	add	ix,sp
                            567 ;src/niveles.c:98: strcpy(entidad->name,"Soldier 1");
   02DF DD 4E 04      [19]  568 	ld	c,4 (ix)
   02E2 DD 46 05      [19]  569 	ld	b,5 (ix)
   02E5 59            [ 4]  570 	ld	e, c
   02E6 50            [ 4]  571 	ld	d, b
   02E7 13            [ 6]  572 	inc	de
   02E8 C5            [11]  573 	push	bc
   02E9 21r18r03      [10]  574 	ld	hl, #___str_10
   02EC AF            [ 4]  575 	xor	a, a
   02ED                     576 00103$:
   02ED BE            [ 7]  577 	cp	a, (hl)
   02EE ED A0         [16]  578 	ldi
   02F0 20 FB         [12]  579 	jr	NZ, 00103$
   02F2 C1            [10]  580 	pop	bc
                            581 ;src/niveles.c:99: entidad->max_energy = 60;
   02F3 21 0C 00      [10]  582 	ld	hl, #0x000c
   02F6 09            [11]  583 	add	hl, bc
   02F7 36 3C         [10]  584 	ld	(hl), #0x3c
                            585 ;src/niveles.c:100: entidad->attack = 12;
   02F9 21 0D 00      [10]  586 	ld	hl, #0x000d
   02FC 09            [11]  587 	add	hl, bc
   02FD 36 0C         [10]  588 	ld	(hl), #0x0c
                            589 ;src/niveles.c:101: entidad->force = 5;
   02FF 21 0E 00      [10]  590 	ld	hl, #0x000e
   0302 09            [11]  591 	add	hl, bc
   0303 36 05         [10]  592 	ld	(hl), #0x05
                            593 ;src/niveles.c:102: entidad->defense = 10;
   0305 21 0F 00      [10]  594 	ld	hl, #0x000f
   0308 09            [11]  595 	add	hl, bc
   0309 36 0A         [10]  596 	ld	(hl), #0x0a
                            597 ;src/niveles.c:103: entidad->sprite = (u8*) &G_soldado_1[0];
   030B 21 13 00      [10]  598 	ld	hl, #0x0013
   030E 09            [11]  599 	add	hl, bc
   030F 01r00r00      [10]  600 	ld	bc, #_G_soldado_1+0
   0312 71            [ 7]  601 	ld	(hl), c
   0313 23            [ 6]  602 	inc	hl
   0314 70            [ 7]  603 	ld	(hl), b
   0315 DD E1         [14]  604 	pop	ix
   0317 C9            [10]  605 	ret
   0318                     606 ___str_10:
   0318 53 6F 6C 64 69 65   607 	.ascii "Soldier 1"
        72 20 31
   0321 00                  608 	.db 0x00
                            609 ;src/niveles.c:106: void initSoldado2(TStats *entidad) {
                            610 ;	---------------------------------
                            611 ; Function initSoldado2
                            612 ; ---------------------------------
   0322                     613 _initSoldado2::
   0322 DD E5         [15]  614 	push	ix
   0324 DD 21 00 00   [14]  615 	ld	ix,#0
   0328 DD 39         [15]  616 	add	ix,sp
                            617 ;src/niveles.c:107: strcpy(entidad->name,"Soldier 2");
   032A DD 4E 04      [19]  618 	ld	c,4 (ix)
   032D DD 46 05      [19]  619 	ld	b,5 (ix)
   0330 59            [ 4]  620 	ld	e, c
   0331 50            [ 4]  621 	ld	d, b
   0332 13            [ 6]  622 	inc	de
   0333 C5            [11]  623 	push	bc
   0334 21r63r03      [10]  624 	ld	hl, #___str_11
   0337 AF            [ 4]  625 	xor	a, a
   0338                     626 00103$:
   0338 BE            [ 7]  627 	cp	a, (hl)
   0339 ED A0         [16]  628 	ldi
   033B 20 FB         [12]  629 	jr	NZ, 00103$
   033D C1            [10]  630 	pop	bc
                            631 ;src/niveles.c:108: entidad->max_energy = 50;
   033E 21 0C 00      [10]  632 	ld	hl, #0x000c
   0341 09            [11]  633 	add	hl, bc
   0342 36 32         [10]  634 	ld	(hl), #0x32
                            635 ;src/niveles.c:109: entidad->attack = 25;
   0344 21 0D 00      [10]  636 	ld	hl, #0x000d
   0347 09            [11]  637 	add	hl, bc
   0348 36 19         [10]  638 	ld	(hl), #0x19
                            639 ;src/niveles.c:110: entidad->force = 10;
   034A 21 0E 00      [10]  640 	ld	hl, #0x000e
   034D 09            [11]  641 	add	hl, bc
   034E 36 0A         [10]  642 	ld	(hl), #0x0a
                            643 ;src/niveles.c:111: entidad->defense = 0;
   0350 21 0F 00      [10]  644 	ld	hl, #0x000f
   0353 09            [11]  645 	add	hl, bc
   0354 36 00         [10]  646 	ld	(hl), #0x00
                            647 ;src/niveles.c:112: entidad->sprite = (u8*) &G_soldado_2[0];
   0356 21 13 00      [10]  648 	ld	hl, #0x0013
   0359 09            [11]  649 	add	hl, bc
   035A 01r00r00      [10]  650 	ld	bc, #_G_soldado_2+0
   035D 71            [ 7]  651 	ld	(hl), c
   035E 23            [ 6]  652 	inc	hl
   035F 70            [ 7]  653 	ld	(hl), b
   0360 DD E1         [14]  654 	pop	ix
   0362 C9            [10]  655 	ret
   0363                     656 ___str_11:
   0363 53 6F 6C 64 69 65   657 	.ascii "Soldier 2"
        72 20 32
   036C 00                  658 	.db 0x00
                            659 ;src/niveles.c:115: void initCaballero(TStats *entidad) {
                            660 ;	---------------------------------
                            661 ; Function initCaballero
                            662 ; ---------------------------------
   036D                     663 _initCaballero::
   036D DD E5         [15]  664 	push	ix
   036F DD 21 00 00   [14]  665 	ld	ix,#0
   0373 DD 39         [15]  666 	add	ix,sp
                            667 ;src/niveles.c:116: strcpy(entidad->name,"Knight");
   0375 DD 4E 04      [19]  668 	ld	c,4 (ix)
   0378 DD 46 05      [19]  669 	ld	b,5 (ix)
   037B 59            [ 4]  670 	ld	e, c
   037C 50            [ 4]  671 	ld	d, b
   037D 13            [ 6]  672 	inc	de
   037E C5            [11]  673 	push	bc
   037F 21rAEr03      [10]  674 	ld	hl, #___str_12
   0382 AF            [ 4]  675 	xor	a, a
   0383                     676 00103$:
   0383 BE            [ 7]  677 	cp	a, (hl)
   0384 ED A0         [16]  678 	ldi
   0386 20 FB         [12]  679 	jr	NZ, 00103$
   0388 C1            [10]  680 	pop	bc
                            681 ;src/niveles.c:117: entidad->max_energy = 75;
   0389 21 0C 00      [10]  682 	ld	hl, #0x000c
   038C 09            [11]  683 	add	hl, bc
   038D 36 4B         [10]  684 	ld	(hl), #0x4b
                            685 ;src/niveles.c:118: entidad->attack = 15;
   038F 21 0D 00      [10]  686 	ld	hl, #0x000d
   0392 09            [11]  687 	add	hl, bc
   0393 36 0F         [10]  688 	ld	(hl), #0x0f
                            689 ;src/niveles.c:119: entidad->force = 10;
   0395 21 0E 00      [10]  690 	ld	hl, #0x000e
   0398 09            [11]  691 	add	hl, bc
   0399 36 0A         [10]  692 	ld	(hl), #0x0a
                            693 ;src/niveles.c:120: entidad->defense = 15;
   039B 21 0F 00      [10]  694 	ld	hl, #0x000f
   039E 09            [11]  695 	add	hl, bc
   039F 36 0F         [10]  696 	ld	(hl), #0x0f
                            697 ;src/niveles.c:121: entidad->sprite = (u8*) &G_caballero[0];
   03A1 21 13 00      [10]  698 	ld	hl, #0x0013
   03A4 09            [11]  699 	add	hl, bc
   03A5 01r00r00      [10]  700 	ld	bc, #_G_caballero+0
   03A8 71            [ 7]  701 	ld	(hl), c
   03A9 23            [ 6]  702 	inc	hl
   03AA 70            [ 7]  703 	ld	(hl), b
   03AB DD E1         [14]  704 	pop	ix
   03AD C9            [10]  705 	ret
   03AE                     706 ___str_12:
   03AE 4B 6E 69 67 68 74   707 	.ascii "Knight"
   03B4 00                  708 	.db 0x00
                            709 ;src/niveles.c:124: void initCarcelero(TStats *entidad) {
                            710 ;	---------------------------------
                            711 ; Function initCarcelero
                            712 ; ---------------------------------
   03B5                     713 _initCarcelero::
   03B5 DD E5         [15]  714 	push	ix
   03B7 DD 21 00 00   [14]  715 	ld	ix,#0
   03BB DD 39         [15]  716 	add	ix,sp
                            717 ;src/niveles.c:125: strcpy(entidad->name,"Guard");
   03BD DD 4E 04      [19]  718 	ld	c,4 (ix)
   03C0 DD 46 05      [19]  719 	ld	b,5 (ix)
   03C3 59            [ 4]  720 	ld	e, c
   03C4 50            [ 4]  721 	ld	d, b
   03C5 13            [ 6]  722 	inc	de
   03C6 C5            [11]  723 	push	bc
   03C7 21rF6r03      [10]  724 	ld	hl, #___str_13
   03CA AF            [ 4]  725 	xor	a, a
   03CB                     726 00103$:
   03CB BE            [ 7]  727 	cp	a, (hl)
   03CC ED A0         [16]  728 	ldi
   03CE 20 FB         [12]  729 	jr	NZ, 00103$
   03D0 C1            [10]  730 	pop	bc
                            731 ;src/niveles.c:126: entidad->max_energy = 60;
   03D1 21 0C 00      [10]  732 	ld	hl, #0x000c
   03D4 09            [11]  733 	add	hl, bc
   03D5 36 3C         [10]  734 	ld	(hl), #0x3c
                            735 ;src/niveles.c:127: entidad->attack = 20;
   03D7 21 0D 00      [10]  736 	ld	hl, #0x000d
   03DA 09            [11]  737 	add	hl, bc
   03DB 36 14         [10]  738 	ld	(hl), #0x14
                            739 ;src/niveles.c:128: entidad->force = 10;
   03DD 21 0E 00      [10]  740 	ld	hl, #0x000e
   03E0 09            [11]  741 	add	hl, bc
   03E1 36 0A         [10]  742 	ld	(hl), #0x0a
                            743 ;src/niveles.c:129: entidad->defense = 10;
   03E3 21 0F 00      [10]  744 	ld	hl, #0x000f
   03E6 09            [11]  745 	add	hl, bc
   03E7 36 0A         [10]  746 	ld	(hl), #0x0a
                            747 ;src/niveles.c:130: entidad->sprite = (u8*) &G_carcelero[0];
   03E9 21 13 00      [10]  748 	ld	hl, #0x0013
   03EC 09            [11]  749 	add	hl, bc
   03ED 01r00r00      [10]  750 	ld	bc, #_G_carcelero+0
   03F0 71            [ 7]  751 	ld	(hl), c
   03F1 23            [ 6]  752 	inc	hl
   03F2 70            [ 7]  753 	ld	(hl), b
   03F3 DD E1         [14]  754 	pop	ix
   03F5 C9            [10]  755 	ret
   03F6                     756 ___str_13:
   03F6 47 75 61 72 64      757 	.ascii "Guard"
   03FB 00                  758 	.db 0x00
                            759 ;src/niveles.c:133: void initMago(TStats *entidad) {
                            760 ;	---------------------------------
                            761 ; Function initMago
                            762 ; ---------------------------------
   03FC                     763 _initMago::
   03FC DD E5         [15]  764 	push	ix
   03FE DD 21 00 00   [14]  765 	ld	ix,#0
   0402 DD 39         [15]  766 	add	ix,sp
                            767 ;src/niveles.c:134: strcpy(entidad->name,"Magician");
   0404 DD 4E 04      [19]  768 	ld	c,4 (ix)
   0407 DD 46 05      [19]  769 	ld	b,5 (ix)
   040A 59            [ 4]  770 	ld	e, c
   040B 50            [ 4]  771 	ld	d, b
   040C 13            [ 6]  772 	inc	de
   040D C5            [11]  773 	push	bc
   040E 21r3Dr04      [10]  774 	ld	hl, #___str_14
   0411 AF            [ 4]  775 	xor	a, a
   0412                     776 00103$:
   0412 BE            [ 7]  777 	cp	a, (hl)
   0413 ED A0         [16]  778 	ldi
   0415 20 FB         [12]  779 	jr	NZ, 00103$
   0417 C1            [10]  780 	pop	bc
                            781 ;src/niveles.c:135: entidad->max_energy = 60;
   0418 21 0C 00      [10]  782 	ld	hl, #0x000c
   041B 09            [11]  783 	add	hl, bc
   041C 36 3C         [10]  784 	ld	(hl), #0x3c
                            785 ;src/niveles.c:136: entidad->attack = 14;
   041E 21 0D 00      [10]  786 	ld	hl, #0x000d
   0421 09            [11]  787 	add	hl, bc
   0422 36 0E         [10]  788 	ld	(hl), #0x0e
                            789 ;src/niveles.c:137: entidad->force = 2;
   0424 21 0E 00      [10]  790 	ld	hl, #0x000e
   0427 09            [11]  791 	add	hl, bc
   0428 36 02         [10]  792 	ld	(hl), #0x02
                            793 ;src/niveles.c:138: entidad->defense = 0;
   042A 21 0F 00      [10]  794 	ld	hl, #0x000f
   042D 09            [11]  795 	add	hl, bc
   042E 36 00         [10]  796 	ld	(hl), #0x00
                            797 ;src/niveles.c:139: entidad->sprite = (u8*) &G_mago[0];
   0430 21 13 00      [10]  798 	ld	hl, #0x0013
   0433 09            [11]  799 	add	hl, bc
   0434 01r00r00      [10]  800 	ld	bc, #_G_mago+0
   0437 71            [ 7]  801 	ld	(hl), c
   0438 23            [ 6]  802 	inc	hl
   0439 70            [ 7]  803 	ld	(hl), b
   043A DD E1         [14]  804 	pop	ix
   043C C9            [10]  805 	ret
   043D                     806 ___str_14:
   043D 4D 61 67 69 63 69   807 	.ascii "Magician"
        61 6E
   0445 00                  808 	.db 0x00
                            809 ;src/niveles.c:142: void initPlayer(){
                            810 ;	---------------------------------
                            811 ; Function initPlayer
                            812 ; ---------------------------------
   0446                     813 _initPlayer::
                            814 ;src/niveles.c:143: entidad[0].id =0;
   0446 21r00r00      [10]  815 	ld	hl, #_entidad
   0449 36 00         [10]  816 	ld	(hl), #0x00
                            817 ;src/niveles.c:144: strcpy(entidad[0].name,"Don Mendo");
   044B 11r01r00      [10]  818 	ld	de, #(_entidad + 0x0001)
   044E 21r86r04      [10]  819 	ld	hl, #___str_15
   0451 AF            [ 4]  820 	xor	a, a
   0452                     821 00103$:
   0452 BE            [ 7]  822 	cp	a, (hl)
   0453 ED A0         [16]  823 	ldi
   0455 20 FB         [12]  824 	jr	NZ, 00103$
                            825 ;src/niveles.c:145: entidad[0].max_energy = entidad[0].energy = 60;
   0457 21r0Br00      [10]  826 	ld	hl, #(_entidad + 0x000b)
   045A 36 3C         [10]  827 	ld	(hl), #0x3c
   045C 21r0Cr00      [10]  828 	ld	hl, #(_entidad + 0x000c)
   045F 36 3C         [10]  829 	ld	(hl), #0x3c
                            830 ;src/niveles.c:146: entidad[0].attack = 20;
   0461 21r0Dr00      [10]  831 	ld	hl, #(_entidad + 0x000d)
   0464 36 14         [10]  832 	ld	(hl), #0x14
                            833 ;src/niveles.c:147: entidad[0].force = 5;
   0466 21r0Er00      [10]  834 	ld	hl, #(_entidad + 0x000e)
   0469 36 05         [10]  835 	ld	(hl), #0x05
                            836 ;src/niveles.c:148: entidad[0].defense = 15;
   046B 21r0Fr00      [10]  837 	ld	hl, #(_entidad + 0x000f)
   046E 36 0F         [10]  838 	ld	(hl), #0x0f
                            839 ;src/niveles.c:149: entidad[0].pos_x = 8;
   0470 21r10r00      [10]  840 	ld	hl, #(_entidad + 0x0010)
   0473 36 08         [10]  841 	ld	(hl), #0x08
                            842 ;src/niveles.c:150: entidad[0].pos_x_ant = 8;
   0475 21r11r00      [10]  843 	ld	hl, #(_entidad + 0x0011)
   0478 36 08         [10]  844 	ld	(hl), #0x08
                            845 ;src/niveles.c:151: entidad[0].pos_y = 24;
   047A 21r12r00      [10]  846 	ld	hl, #(_entidad + 0x0012)
   047D 36 18         [10]  847 	ld	(hl), #0x18
                            848 ;src/niveles.c:152: entidad[0].sprite = (u8*) &G_mendo[0];
   047F 21r00r00      [10]  849 	ld	hl, #_G_mendo
   0482 22r13r00      [16]  850 	ld	((_entidad + 0x0013)), hl
   0485 C9            [10]  851 	ret
   0486                     852 ___str_15:
   0486 44 6F 6E 20 4D 65   853 	.ascii "Don Mendo"
        6E 64 6F
   048F 00                  854 	.db 0x00
                            855 ;src/niveles.c:155: void initNivel(){
                            856 ;	---------------------------------
                            857 ; Function initNivel
                            858 ; ---------------------------------
   0490                     859 _initNivel::
                            860 ;src/niveles.c:157: entidad[1].id = 1;
   0490 21r15r00      [10]  861 	ld	hl, #(_entidad + 0x0015)
   0493 36 01         [10]  862 	ld	(hl), #0x01
                            863 ;src/niveles.c:158: entidad[1].max_energy = 0;
   0495 21r21r00      [10]  864 	ld	hl, #(_entidad + 0x0021)
   0498 36 00         [10]  865 	ld	(hl), #0x00
                            866 ;src/niveles.c:159: entidad[1].pos_x_ant = 4;
   049A 21r26r00      [10]  867 	ld	hl, #(_entidad + 0x0026)
   049D 36 04         [10]  868 	ld	(hl), #0x04
                            869 ;src/niveles.c:160: entidad[2].id = 2;
   049F 21r2Ar00      [10]  870 	ld	hl, #(_entidad + 0x002a)
   04A2 36 02         [10]  871 	ld	(hl), #0x02
                            872 ;src/niveles.c:161: entidad[2].max_energy = 0;
   04A4 21r36r00      [10]  873 	ld	hl, #(_entidad + 0x0036)
   04A7 36 00         [10]  874 	ld	(hl), #0x00
                            875 ;src/niveles.c:162: entidad[2].pos_x_ant = 4;
   04A9 21r3Br00      [10]  876 	ld	hl, #(_entidad + 0x003b)
   04AC 36 04         [10]  877 	ld	(hl), #0x04
                            878 ;src/niveles.c:165: if (nivel == 1) {
   04AE 3Ar00r00      [13]  879 	ld	a,(#_nivel + 0)
   04B1 3D            [ 4]  880 	dec	a
   04B2 20 08         [12]  881 	jr	NZ,00102$
                            882 ;src/niveles.c:166: initSoldadoArabe1(&entidad[1]);
   04B4 21r15r00      [10]  883 	ld	hl, #(_entidad + 0x0015)
   04B7 E5            [11]  884 	push	hl
   04B8 CDr00r00      [17]  885 	call	_initSoldadoArabe1
   04BB F1            [10]  886 	pop	af
   04BC                     887 00102$:
                            888 ;src/niveles.c:168: if (nivel == 2) {
   04BC 3Ar00r00      [13]  889 	ld	a,(#_nivel + 0)
   04BF D6 02         [ 7]  890 	sub	a, #0x02
   04C1 20 08         [12]  891 	jr	NZ,00104$
                            892 ;src/niveles.c:169: initSoldadoArabe1(&entidad[2]);
   04C3 21r2Ar00      [10]  893 	ld	hl, #(_entidad + 0x002a)
   04C6 E5            [11]  894 	push	hl
   04C7 CDr00r00      [17]  895 	call	_initSoldadoArabe1
   04CA F1            [10]  896 	pop	af
   04CB                     897 00104$:
                            898 ;src/niveles.c:171: if (nivel == 3){
   04CB 3Ar00r00      [13]  899 	ld	a,(#_nivel + 0)
   04CE D6 03         [ 7]  900 	sub	a, #0x03
   04D0 20 0F         [12]  901 	jr	NZ,00106$
                            902 ;src/niveles.c:172: initAbeja(&entidad[1]);
   04D2 21r15r00      [10]  903 	ld	hl, #(_entidad + 0x0015)
   04D5 E5            [11]  904 	push	hl
   04D6 CDr28r01      [17]  905 	call	_initAbeja
                            906 ;src/niveles.c:173: initSoldadoArabe1(&entidad[2]);
   04D9 21r2Ar00      [10]  907 	ld	hl, #(_entidad + 0x002a)
   04DC E3            [19]  908 	ex	(sp),hl
   04DD CDr00r00      [17]  909 	call	_initSoldadoArabe1
   04E0 F1            [10]  910 	pop	af
   04E1                     911 00106$:
                            912 ;src/niveles.c:175: if (nivel == 4){
   04E1 3Ar00r00      [13]  913 	ld	a,(#_nivel + 0)
   04E4 D6 04         [ 7]  914 	sub	a, #0x04
   04E6 20 08         [12]  915 	jr	NZ,00108$
                            916 ;src/niveles.c:176: initSoldadoArabe2(&entidad[1]);
   04E8 21r15r00      [10]  917 	ld	hl, #(_entidad + 0x0015)
   04EB E5            [11]  918 	push	hl
   04EC CDr4Br00      [17]  919 	call	_initSoldadoArabe2
   04EF F1            [10]  920 	pop	af
   04F0                     921 00108$:
                            922 ;src/niveles.c:178: if (nivel == 6){
   04F0 3Ar00r00      [13]  923 	ld	a,(#_nivel + 0)
   04F3 D6 06         [ 7]  924 	sub	a, #0x06
   04F5 20 0F         [12]  925 	jr	NZ,00110$
                            926 ;src/niveles.c:179: initAbeja(&entidad[1]);
   04F7 21r15r00      [10]  927 	ld	hl, #(_entidad + 0x0015)
   04FA E5            [11]  928 	push	hl
   04FB CDr28r01      [17]  929 	call	_initAbeja
                            930 ;src/niveles.c:180: initFakir(&entidad[2]);
   04FE 21r2Ar00      [10]  931 	ld	hl, #(_entidad + 0x002a)
   0501 E3            [19]  932 	ex	(sp),hl
   0502 CDrE1r00      [17]  933 	call	_initFakir
   0505 F1            [10]  934 	pop	af
   0506                     935 00110$:
                            936 ;src/niveles.c:182: if (nivel == 7){
   0506 3Ar00r00      [13]  937 	ld	a,(#_nivel + 0)
   0509 D6 07         [ 7]  938 	sub	a, #0x07
   050B 20 0F         [12]  939 	jr	NZ,00112$
                            940 ;src/niveles.c:183: initSoldadoArabe2(&entidad[1]);
   050D 21r15r00      [10]  941 	ld	hl, #(_entidad + 0x0015)
   0510 E5            [11]  942 	push	hl
   0511 CDr4Br00      [17]  943 	call	_initSoldadoArabe2
                            944 ;src/niveles.c:184: initSoldadoArabe3(&entidad[2]);
   0514 21r2Ar00      [10]  945 	ld	hl, #(_entidad + 0x002a)
   0517 E3            [19]  946 	ex	(sp),hl
   0518 CDr96r00      [17]  947 	call	_initSoldadoArabe3
   051B F1            [10]  948 	pop	af
   051C                     949 00112$:
                            950 ;src/niveles.c:186: if (nivel == 8){
   051C 3Ar00r00      [13]  951 	ld	a,(#_nivel + 0)
   051F D6 08         [ 7]  952 	sub	a, #0x08
   0521 20 0F         [12]  953 	jr	NZ,00114$
                            954 ;src/niveles.c:187: initFakir(&entidad[1]);
   0523 21r15r00      [10]  955 	ld	hl, #(_entidad + 0x0015)
   0526 E5            [11]  956 	push	hl
   0527 CDrE1r00      [17]  957 	call	_initFakir
                            958 ;src/niveles.c:188: initSoldadoArabe2(&entidad[2]);
   052A 21r2Ar00      [10]  959 	ld	hl, #(_entidad + 0x002a)
   052D E3            [19]  960 	ex	(sp),hl
   052E CDr4Br00      [17]  961 	call	_initSoldadoArabe2
   0531 F1            [10]  962 	pop	af
   0532                     963 00114$:
                            964 ;src/niveles.c:190: if (nivel == 9){
   0532 3Ar00r00      [13]  965 	ld	a,(#_nivel + 0)
   0535 D6 09         [ 7]  966 	sub	a, #0x09
   0537 20 0F         [12]  967 	jr	NZ,00116$
                            968 ;src/niveles.c:191: initSoldadoArabe3(&entidad[1]);
   0539 21r15r00      [10]  969 	ld	hl, #(_entidad + 0x0015)
   053C E5            [11]  970 	push	hl
   053D CDr96r00      [17]  971 	call	_initSoldadoArabe3
                            972 ;src/niveles.c:192: initSoldadoArabe3(&entidad[2]);
   0540 21r2Ar00      [10]  973 	ld	hl, #(_entidad + 0x002a)
   0543 E3            [19]  974 	ex	(sp),hl
   0544 CDr96r00      [17]  975 	call	_initSoldadoArabe3
   0547 F1            [10]  976 	pop	af
   0548                     977 00116$:
                            978 ;src/niveles.c:195: strcpy(entidad[2].name,"Boss Lvl1");
                            979 ;src/niveles.c:197: entidad[2].attack = 20;
                            980 ;src/niveles.c:198: entidad[2].force = 10;
                            981 ;src/niveles.c:199: entidad[2].defense = 10;
                            982 ;src/niveles.c:200: entidad[2].sprite = (u8*) &G_arabe_boss[0];
                            983 ;src/niveles.c:195: strcpy(entidad[2].name,"Boss Lvl1");
                            984 ;src/niveles.c:194: if (nivel == 10){
   0548 FD 21r00r00   [14]  985 	ld	iy, #_nivel
   054C FD 7E 00      [19]  986 	ld	a, 0 (iy)
   054F D6 0A         [ 7]  987 	sub	a, #0x0a
   0551 20 26         [12]  988 	jr	NZ,00118$
                            989 ;src/niveles.c:195: strcpy(entidad[2].name,"Boss Lvl1");
   0553 11r2Br00      [10]  990 	ld	de, #(_entidad + 0x002b)
   0556 21r81r07      [10]  991 	ld	hl, #___str_16
   0559 AF            [ 4]  992 	xor	a, a
   055A                     993 00301$:
   055A BE            [ 7]  994 	cp	a, (hl)
   055B ED A0         [16]  995 	ldi
   055D 20 FB         [12]  996 	jr	NZ, 00301$
                            997 ;src/niveles.c:196: entidad[2].max_energy = 99;
   055F 21r36r00      [10]  998 	ld	hl, #(_entidad + 0x0036)
   0562 36 63         [10]  999 	ld	(hl), #0x63
                           1000 ;src/niveles.c:197: entidad[2].attack = 20;
   0564 21r37r00      [10] 1001 	ld	hl, #(_entidad + 0x0037)
   0567 36 14         [10] 1002 	ld	(hl), #0x14
                           1003 ;src/niveles.c:198: entidad[2].force = 10;
   0569 21r38r00      [10] 1004 	ld	hl, #(_entidad + 0x0038)
   056C 36 0A         [10] 1005 	ld	(hl), #0x0a
                           1006 ;src/niveles.c:199: entidad[2].defense = 10;
   056E 21r39r00      [10] 1007 	ld	hl, #(_entidad + 0x0039)
   0571 36 0A         [10] 1008 	ld	(hl), #0x0a
                           1009 ;src/niveles.c:200: entidad[2].sprite = (u8*) &G_arabe_boss[0];
   0573 21r00r00      [10] 1010 	ld	hl, #_G_arabe_boss
   0576 22r3Dr00      [16] 1011 	ld	((_entidad + 0x003d)), hl
   0579                    1012 00118$:
                           1013 ;src/niveles.c:203: if (nivel == 11) {
   0579 3Ar00r00      [13] 1014 	ld	a,(#_nivel + 0)
   057C D6 0B         [ 7] 1015 	sub	a, #0x0b
   057E 20 08         [12] 1016 	jr	NZ,00120$
                           1017 ;src/niveles.c:204: initMurcielago(&entidad[1]);
   0580 21r15r00      [10] 1018 	ld	hl, #(_entidad + 0x0015)
   0583 E5            [11] 1019 	push	hl
   0584 CDr6Dr01      [17] 1020 	call	_initMurcielago
   0587 F1            [10] 1021 	pop	af
   0588                    1022 00120$:
                           1023 ;src/niveles.c:206: if (nivel == 12) {
   0588 3Ar00r00      [13] 1024 	ld	a,(#_nivel + 0)
   058B D6 0C         [ 7] 1025 	sub	a, #0x0c
   058D 20 08         [12] 1026 	jr	NZ,00122$
                           1027 ;src/niveles.c:207: initEsqueleto(&entidad[2]);
   058F 21r2Ar00      [10] 1028 	ld	hl, #(_entidad + 0x002a)
   0592 E5            [11] 1029 	push	hl
   0593 CDrB7r01      [17] 1030 	call	_initEsqueleto
   0596 F1            [10] 1031 	pop	af
   0597                    1032 00122$:
                           1033 ;src/niveles.c:209: if (nivel == 13){
   0597 3Ar00r00      [13] 1034 	ld	a,(#_nivel + 0)
   059A D6 0D         [ 7] 1035 	sub	a, #0x0d
   059C 20 0F         [12] 1036 	jr	NZ,00124$
                           1037 ;src/niveles.c:210: initMurcielago(&entidad[1]);
   059E 21r15r00      [10] 1038 	ld	hl, #(_entidad + 0x0015)
   05A1 E5            [11] 1039 	push	hl
   05A2 CDr6Dr01      [17] 1040 	call	_initMurcielago
                           1041 ;src/niveles.c:211: initEsqueleto(&entidad[2]);
   05A5 21r2Ar00      [10] 1042 	ld	hl, #(_entidad + 0x002a)
   05A8 E3            [19] 1043 	ex	(sp),hl
   05A9 CDrB7r01      [17] 1044 	call	_initEsqueleto
   05AC F1            [10] 1045 	pop	af
   05AD                    1046 00124$:
                           1047 ;src/niveles.c:213: if (nivel == 14){
   05AD 3Ar00r00      [13] 1048 	ld	a,(#_nivel + 0)
   05B0 D6 0E         [ 7] 1049 	sub	a, #0x0e
   05B2 20 0F         [12] 1050 	jr	NZ,00126$
                           1051 ;src/niveles.c:214: initMurcielago(&entidad[1]);
   05B4 21r15r00      [10] 1052 	ld	hl, #(_entidad + 0x0015)
   05B7 E5            [11] 1053 	push	hl
   05B8 CDr6Dr01      [17] 1054 	call	_initMurcielago
                           1055 ;src/niveles.c:215: initGusano(&entidad[2]);
   05BB 21r2Ar00      [10] 1056 	ld	hl, #(_entidad + 0x002a)
   05BE E3            [19] 1057 	ex	(sp),hl
   05BF CDr01r02      [17] 1058 	call	_initGusano
   05C2 F1            [10] 1059 	pop	af
   05C3                    1060 00126$:
                           1061 ;src/niveles.c:217: if (nivel == 16){
   05C3 3Ar00r00      [13] 1062 	ld	a,(#_nivel + 0)
   05C6 D6 10         [ 7] 1063 	sub	a, #0x10
   05C8 20 0F         [12] 1064 	jr	NZ,00128$
                           1065 ;src/niveles.c:218: initEsqueleto(&entidad[1]);
   05CA 21r15r00      [10] 1066 	ld	hl, #(_entidad + 0x0015)
   05CD E5            [11] 1067 	push	hl
   05CE CDrB7r01      [17] 1068 	call	_initEsqueleto
                           1069 ;src/niveles.c:219: initGusano(&entidad[2]);
   05D1 21r2Ar00      [10] 1070 	ld	hl, #(_entidad + 0x002a)
   05D4 E3            [19] 1071 	ex	(sp),hl
   05D5 CDr01r02      [17] 1072 	call	_initGusano
   05D8 F1            [10] 1073 	pop	af
   05D9                    1074 00128$:
                           1075 ;src/niveles.c:221: if (nivel == 17){
   05D9 3Ar00r00      [13] 1076 	ld	a,(#_nivel + 0)
   05DC D6 11         [ 7] 1077 	sub	a, #0x11
   05DE 20 0F         [12] 1078 	jr	NZ,00130$
                           1079 ;src/niveles.c:222: initSpider(&entidad[1]);
   05E0 21r15r00      [10] 1080 	ld	hl, #(_entidad + 0x0015)
   05E3 E5            [11] 1081 	push	hl
   05E4 CDr47r02      [17] 1082 	call	_initSpider
                           1083 ;src/niveles.c:223: initSpider(&entidad[2]);
   05E7 21r2Ar00      [10] 1084 	ld	hl, #(_entidad + 0x002a)
   05EA E3            [19] 1085 	ex	(sp),hl
   05EB CDr47r02      [17] 1086 	call	_initSpider
   05EE F1            [10] 1087 	pop	af
   05EF                    1088 00130$:
                           1089 ;src/niveles.c:225: if (nivel == 18){
   05EF 3Ar00r00      [13] 1090 	ld	a,(#_nivel + 0)
   05F2 D6 12         [ 7] 1091 	sub	a, #0x12
   05F4 20 0F         [12] 1092 	jr	NZ,00132$
                           1093 ;src/niveles.c:226: initGoblin(&entidad[1]);
   05F6 21r15r00      [10] 1094 	ld	hl, #(_entidad + 0x0015)
   05F9 E5            [11] 1095 	push	hl
   05FA CDr8Fr02      [17] 1096 	call	_initGoblin
                           1097 ;src/niveles.c:227: initGoblin(&entidad[2]);
   05FD 21r2Ar00      [10] 1098 	ld	hl, #(_entidad + 0x002a)
   0600 E3            [19] 1099 	ex	(sp),hl
   0601 CDr8Fr02      [17] 1100 	call	_initGoblin
   0604 F1            [10] 1101 	pop	af
   0605                    1102 00132$:
                           1103 ;src/niveles.c:229: if (nivel == 19){
   0605 3Ar00r00      [13] 1104 	ld	a,(#_nivel + 0)
   0608 D6 13         [ 7] 1105 	sub	a, #0x13
   060A 20 0F         [12] 1106 	jr	NZ,00134$
                           1107 ;src/niveles.c:230: initGoblin(&entidad[1]);
   060C 21r15r00      [10] 1108 	ld	hl, #(_entidad + 0x0015)
   060F E5            [11] 1109 	push	hl
   0610 CDr8Fr02      [17] 1110 	call	_initGoblin
                           1111 ;src/niveles.c:231: initSpider(&entidad[2]);
   0613 21r2Ar00      [10] 1112 	ld	hl, #(_entidad + 0x002a)
   0616 E3            [19] 1113 	ex	(sp),hl
   0617 CDr47r02      [17] 1114 	call	_initSpider
   061A F1            [10] 1115 	pop	af
   061B                    1116 00134$:
                           1117 ;src/niveles.c:233: if (nivel == 20){
   061B FD 21r00r00   [14] 1118 	ld	iy, #_nivel
   061F FD 7E 00      [19] 1119 	ld	a, 0 (iy)
   0622 D6 14         [ 7] 1120 	sub	a, #0x14
   0624 20 26         [12] 1121 	jr	NZ,00136$
                           1122 ;src/niveles.c:234: strcpy(entidad[2].name,"Boss Lvl2");
   0626 11r2Br00      [10] 1123 	ld	de, #(_entidad + 0x002b)
   0629 21r8Br07      [10] 1124 	ld	hl, #___str_17
   062C AF            [ 4] 1125 	xor	a, a
   062D                    1126 00320$:
   062D BE            [ 7] 1127 	cp	a, (hl)
   062E ED A0         [16] 1128 	ldi
   0630 20 FB         [12] 1129 	jr	NZ, 00320$
                           1130 ;src/niveles.c:235: entidad[2].max_energy = 99;
   0632 21r36r00      [10] 1131 	ld	hl, #(_entidad + 0x0036)
   0635 36 63         [10] 1132 	ld	(hl), #0x63
                           1133 ;src/niveles.c:236: entidad[2].attack = 30;
   0637 21r37r00      [10] 1134 	ld	hl, #(_entidad + 0x0037)
   063A 36 1E         [10] 1135 	ld	(hl), #0x1e
                           1136 ;src/niveles.c:237: entidad[2].force = 5;
   063C 21r38r00      [10] 1137 	ld	hl, #(_entidad + 0x0038)
   063F 36 05         [10] 1138 	ld	(hl), #0x05
                           1139 ;src/niveles.c:238: entidad[2].defense = 10;
   0641 21r39r00      [10] 1140 	ld	hl, #(_entidad + 0x0039)
   0644 36 0A         [10] 1141 	ld	(hl), #0x0a
                           1142 ;src/niveles.c:239: entidad[2].sprite = (u8*) &G_cavern_boss[0];
   0646 21r00r00      [10] 1143 	ld	hl, #_G_cavern_boss
   0649 22r3Dr00      [16] 1144 	ld	((_entidad + 0x003d)), hl
   064C                    1145 00136$:
                           1146 ;src/niveles.c:242: if (nivel == 21) {
   064C 3Ar00r00      [13] 1147 	ld	a,(#_nivel + 0)
   064F D6 15         [ 7] 1148 	sub	a, #0x15
   0651 20 08         [12] 1149 	jr	NZ,00138$
                           1150 ;src/niveles.c:243: initSoldado1(&entidad[1]);
   0653 21r15r00      [10] 1151 	ld	hl, #(_entidad + 0x0015)
   0656 E5            [11] 1152 	push	hl
   0657 CDrD7r02      [17] 1153 	call	_initSoldado1
   065A F1            [10] 1154 	pop	af
   065B                    1155 00138$:
                           1156 ;src/niveles.c:245: if (nivel == 22) {
   065B 3Ar00r00      [13] 1157 	ld	a,(#_nivel + 0)
   065E D6 16         [ 7] 1158 	sub	a, #0x16
   0660 20 08         [12] 1159 	jr	NZ,00140$
                           1160 ;src/niveles.c:246: initCarcelero(&entidad[1]);
   0662 21r15r00      [10] 1161 	ld	hl, #(_entidad + 0x0015)
   0665 E5            [11] 1162 	push	hl
   0666 CDrB5r03      [17] 1163 	call	_initCarcelero
   0669 F1            [10] 1164 	pop	af
   066A                    1165 00140$:
                           1166 ;src/niveles.c:248: if (nivel == 23){
   066A 3Ar00r00      [13] 1167 	ld	a,(#_nivel + 0)
   066D D6 17         [ 7] 1168 	sub	a, #0x17
   066F 20 0F         [12] 1169 	jr	NZ,00142$
                           1170 ;src/niveles.c:249: initSoldado1(&entidad[1]);
   0671 21r15r00      [10] 1171 	ld	hl, #(_entidad + 0x0015)
   0674 E5            [11] 1172 	push	hl
   0675 CDrD7r02      [17] 1173 	call	_initSoldado1
                           1174 ;src/niveles.c:250: initCarcelero(&entidad[2]);
   0678 21r2Ar00      [10] 1175 	ld	hl, #(_entidad + 0x002a)
   067B E3            [19] 1176 	ex	(sp),hl
   067C CDrB5r03      [17] 1177 	call	_initCarcelero
   067F F1            [10] 1178 	pop	af
   0680                    1179 00142$:
                           1180 ;src/niveles.c:252: if (nivel == 24){
   0680 3Ar00r00      [13] 1181 	ld	a,(#_nivel + 0)
   0683 D6 18         [ 7] 1182 	sub	a, #0x18
   0685 20 0F         [12] 1183 	jr	NZ,00144$
                           1184 ;src/niveles.c:253: initSoldado1(&entidad[1]);
   0687 21r15r00      [10] 1185 	ld	hl, #(_entidad + 0x0015)
   068A E5            [11] 1186 	push	hl
   068B CDrD7r02      [17] 1187 	call	_initSoldado1
                           1188 ;src/niveles.c:254: initCaballero(&entidad[2]);
   068E 21r2Ar00      [10] 1189 	ld	hl, #(_entidad + 0x002a)
   0691 E3            [19] 1190 	ex	(sp),hl
   0692 CDr6Dr03      [17] 1191 	call	_initCaballero
   0695 F1            [10] 1192 	pop	af
   0696                    1193 00144$:
                           1194 ;src/niveles.c:256: if (nivel == 26){
   0696 3Ar00r00      [13] 1195 	ld	a,(#_nivel + 0)
   0699 D6 1A         [ 7] 1196 	sub	a, #0x1a
   069B 20 0F         [12] 1197 	jr	NZ,00146$
                           1198 ;src/niveles.c:257: initSoldado2(&entidad[1]);
   069D 21r15r00      [10] 1199 	ld	hl, #(_entidad + 0x0015)
   06A0 E5            [11] 1200 	push	hl
   06A1 CDr22r03      [17] 1201 	call	_initSoldado2
                           1202 ;src/niveles.c:258: initCaballero(&entidad[2]);
   06A4 21r2Ar00      [10] 1203 	ld	hl, #(_entidad + 0x002a)
   06A7 E3            [19] 1204 	ex	(sp),hl
   06A8 CDr6Dr03      [17] 1205 	call	_initCaballero
   06AB F1            [10] 1206 	pop	af
   06AC                    1207 00146$:
                           1208 ;src/niveles.c:260: if (nivel == 27){
   06AC 3Ar00r00      [13] 1209 	ld	a,(#_nivel + 0)
   06AF D6 1B         [ 7] 1210 	sub	a, #0x1b
   06B1 20 0F         [12] 1211 	jr	NZ,00148$
                           1212 ;src/niveles.c:261: initSoldado2(&entidad[1]);
   06B3 21r15r00      [10] 1213 	ld	hl, #(_entidad + 0x0015)
   06B6 E5            [11] 1214 	push	hl
   06B7 CDr22r03      [17] 1215 	call	_initSoldado2
                           1216 ;src/niveles.c:262: initSoldado2(&entidad[2]);    
   06BA 21r2Ar00      [10] 1217 	ld	hl, #(_entidad + 0x002a)
   06BD E3            [19] 1218 	ex	(sp),hl
   06BE CDr22r03      [17] 1219 	call	_initSoldado2
   06C1 F1            [10] 1220 	pop	af
   06C2                    1221 00148$:
                           1222 ;src/niveles.c:264: if (nivel == 28){
   06C2 3Ar00r00      [13] 1223 	ld	a,(#_nivel + 0)
   06C5 D6 1C         [ 7] 1224 	sub	a, #0x1c
   06C7 20 08         [12] 1225 	jr	NZ,00150$
                           1226 ;src/niveles.c:265: initMago(&entidad[2]);
   06C9 21r2Ar00      [10] 1227 	ld	hl, #(_entidad + 0x002a)
   06CC E5            [11] 1228 	push	hl
   06CD CDrFCr03      [17] 1229 	call	_initMago
   06D0 F1            [10] 1230 	pop	af
   06D1                    1231 00150$:
                           1232 ;src/niveles.c:267: if (nivel == 29){
   06D1 3Ar00r00      [13] 1233 	ld	a,(#_nivel + 0)
   06D4 D6 1D         [ 7] 1234 	sub	a, #0x1d
   06D6 20 0F         [12] 1235 	jr	NZ,00152$
                           1236 ;src/niveles.c:268: initCaballero(&entidad[1]);
   06D8 21r15r00      [10] 1237 	ld	hl, #(_entidad + 0x0015)
   06DB E5            [11] 1238 	push	hl
   06DC CDr6Dr03      [17] 1239 	call	_initCaballero
                           1240 ;src/niveles.c:269: initCaballero(&entidad[2]);
   06DF 21r2Ar00      [10] 1241 	ld	hl, #(_entidad + 0x002a)
   06E2 E3            [19] 1242 	ex	(sp),hl
   06E3 CDr6Dr03      [17] 1243 	call	_initCaballero
   06E6 F1            [10] 1244 	pop	af
   06E7                    1245 00152$:
                           1246 ;src/niveles.c:271: if (nivel == 30){
   06E7 FD 21r00r00   [14] 1247 	ld	iy, #_nivel
   06EB FD 7E 00      [19] 1248 	ld	a, 0 (iy)
   06EE D6 1E         [ 7] 1249 	sub	a, #0x1e
   06F0 20 26         [12] 1250 	jr	NZ,00154$
                           1251 ;src/niveles.c:272: strcpy(entidad[2].name,"Ricardo");
   06F2 11r2Br00      [10] 1252 	ld	de, #(_entidad + 0x002b)
   06F5 21r95r07      [10] 1253 	ld	hl, #___str_18
   06F8 AF            [ 4] 1254 	xor	a, a
   06F9                    1255 00339$:
   06F9 BE            [ 7] 1256 	cp	a, (hl)
   06FA ED A0         [16] 1257 	ldi
   06FC 20 FB         [12] 1258 	jr	NZ, 00339$
                           1259 ;src/niveles.c:273: entidad[2].max_energy = 1;
   06FE 21r36r00      [10] 1260 	ld	hl, #(_entidad + 0x0036)
   0701 36 01         [10] 1261 	ld	(hl), #0x01
                           1262 ;src/niveles.c:274: entidad[2].attack = 0;
   0703 21r37r00      [10] 1263 	ld	hl, #(_entidad + 0x0037)
   0706 36 00         [10] 1264 	ld	(hl), #0x00
                           1265 ;src/niveles.c:275: entidad[2].force = 0;
   0708 21r38r00      [10] 1266 	ld	hl, #(_entidad + 0x0038)
   070B 36 00         [10] 1267 	ld	(hl), #0x00
                           1268 ;src/niveles.c:276: entidad[2].defense = 0;
   070D 21r39r00      [10] 1269 	ld	hl, #(_entidad + 0x0039)
   0710 36 00         [10] 1270 	ld	(hl), #0x00
                           1271 ;src/niveles.c:277: entidad[2].sprite = (u8*) &G_ricardo[0];
   0712 21r00r00      [10] 1272 	ld	hl, #_G_ricardo
   0715 22r3Dr00      [16] 1273 	ld	((_entidad + 0x003d)), hl
   0718                    1274 00154$:
                           1275 ;src/niveles.c:279: if (nivel == 31){
   0718 FD 21r00r00   [14] 1276 	ld	iy, #_nivel
   071C FD 7E 00      [19] 1277 	ld	a, 0 (iy)
   071F D6 1F         [ 7] 1278 	sub	a, #0x1f
   0721 20 26         [12] 1279 	jr	NZ,00156$
                           1280 ;src/niveles.c:280: strcpy(entidad[2].name,"Lady Sol");
   0723 11r2Br00      [10] 1281 	ld	de, #(_entidad + 0x002b)
   0726 21r9Dr07      [10] 1282 	ld	hl, #___str_19
   0729 AF            [ 4] 1283 	xor	a, a
   072A                    1284 00342$:
   072A BE            [ 7] 1285 	cp	a, (hl)
   072B ED A0         [16] 1286 	ldi
   072D 20 FB         [12] 1287 	jr	NZ, 00342$
                           1288 ;src/niveles.c:281: entidad[2].max_energy = 1;
   072F 21r36r00      [10] 1289 	ld	hl, #(_entidad + 0x0036)
   0732 36 01         [10] 1290 	ld	(hl), #0x01
                           1291 ;src/niveles.c:282: entidad[2].attack = 0;
   0734 21r37r00      [10] 1292 	ld	hl, #(_entidad + 0x0037)
   0737 36 00         [10] 1293 	ld	(hl), #0x00
                           1294 ;src/niveles.c:283: entidad[2].force = 0;
   0739 21r38r00      [10] 1295 	ld	hl, #(_entidad + 0x0038)
   073C 36 00         [10] 1296 	ld	(hl), #0x00
                           1297 ;src/niveles.c:284: entidad[2].defense = 0;
   073E 21r39r00      [10] 1298 	ld	hl, #(_entidad + 0x0039)
   0741 36 00         [10] 1299 	ld	(hl), #0x00
                           1300 ;src/niveles.c:285: entidad[2].sprite = (u8*) &G_sol[0];
   0743 21r00r00      [10] 1301 	ld	hl, #_G_sol
   0746 22r3Dr00      [16] 1302 	ld	((_entidad + 0x003d)), hl
   0749                    1303 00156$:
                           1304 ;src/niveles.c:288: entidad[1].pos_x = 28;  //Posicin del sprite en pantalla
   0749 21r25r00      [10] 1305 	ld	hl, #(_entidad + 0x0025)
   074C 36 1C         [10] 1306 	ld	(hl), #0x1c
                           1307 ;src/niveles.c:289: entidad[2].pos_x = 36;
   074E 01r3Ar00      [10] 1308 	ld	bc, #_entidad + 58
   0751 3E 24         [ 7] 1309 	ld	a, #0x24
   0753 02            [ 7] 1310 	ld	(bc), a
                           1311 ;src/niveles.c:290: if (nivel == 30)
   0754 3Ar00r00      [13] 1312 	ld	a,(#_nivel + 0)
   0757 D6 1E         [ 7] 1313 	sub	a, #0x1e
   0759 20 03         [12] 1314 	jr	NZ,00158$
                           1315 ;src/niveles.c:291: entidad[2].pos_x = 32;
   075B 3E 20         [ 7] 1316 	ld	a, #0x20
   075D 02            [ 7] 1317 	ld	(bc), a
   075E                    1318 00158$:
                           1319 ;src/niveles.c:292: if (nivel == 31)
   075E 3Ar00r00      [13] 1320 	ld	a,(#_nivel + 0)
   0761 D6 1F         [ 7] 1321 	sub	a, #0x1f
   0763 20 03         [12] 1322 	jr	NZ,00160$
                           1323 ;src/niveles.c:293: entidad[2].pos_x = 20;
   0765 3E 14         [ 7] 1324 	ld	a, #0x14
   0767 02            [ 7] 1325 	ld	(bc), a
   0768                    1326 00160$:
                           1327 ;src/niveles.c:294: entidad[1].pos_y = 32;  //Posicin en el marcador
   0768 21r27r00      [10] 1328 	ld	hl, #(_entidad + 0x0027)
   076B 36 20         [10] 1329 	ld	(hl), #0x20
                           1330 ;src/niveles.c:295: entidad[2].pos_y = 40;  //
   076D 21r3Cr00      [10] 1331 	ld	hl, #(_entidad + 0x003c)
   0770 36 28         [10] 1332 	ld	(hl), #0x28
                           1333 ;src/niveles.c:296: entidad[1].energy = entidad[1].max_energy;
   0772 01r20r00      [10] 1334 	ld	bc, #_entidad + 32
   0775 3Ar21r00      [13] 1335 	ld	a, (#(_entidad + 0x0021) + 0)
   0778 02            [ 7] 1336 	ld	(bc), a
                           1337 ;src/niveles.c:297: entidad[2].energy = entidad[2].max_energy;
   0779 01r35r00      [10] 1338 	ld	bc, #_entidad + 53
   077C 3Ar36r00      [13] 1339 	ld	a, (#(_entidad + 0x0036) + 0)
   077F 02            [ 7] 1340 	ld	(bc), a
   0780 C9            [10] 1341 	ret
   0781                    1342 ___str_16:
   0781 42 6F 73 73 20 4C  1343 	.ascii "Boss Lvl1"
        76 6C 31
   078A 00                 1344 	.db 0x00
   078B                    1345 ___str_17:
   078B 42 6F 73 73 20 4C  1346 	.ascii "Boss Lvl2"
        76 6C 32
   0794 00                 1347 	.db 0x00
   0795                    1348 ___str_18:
   0795 52 69 63 61 72 64  1349 	.ascii "Ricardo"
        6F
   079C 00                 1350 	.db 0x00
   079D                    1351 ___str_19:
   079D 4C 61 64 79 20 53  1352 	.ascii "Lady Sol"
        6F 6C
   07A5 00                 1353 	.db 0x00
                           1354 	.area _CODE
                           1355 	.area _INITIALIZER
                           1356 	.area _CABS (ABS)
